   1              	 .cpu cortex-m0
   2              	 .fpu softvfp
   3              	 .eabi_attribute 20,1
   4              	 .eabi_attribute 21,1
   5              	 .eabi_attribute 23,3
   6              	 .eabi_attribute 24,1
   7              	 .eabi_attribute 25,1
   8              	 .eabi_attribute 26,1
   9              	 .eabi_attribute 30,6
  10              	 .eabi_attribute 34,0
  11              	 .eabi_attribute 18,4
  12              	 .code 16
  13              	 .file "main.c"
  14              	 .text
  15              	.Ltext0:
  16              	 .cfi_sections .debug_frame
  17              	 .section .text.__NVIC_SetPriority,"ax",%progbits
  18              	 .align 2
  19              	 .code 16
  20              	 .thumb_func
  22              	__NVIC_SetPriority:
  23              	.LFB33:
  24              	 .file 1 "C:/Users/Lenovo/workspace/dave_workspace/SOLAR_TOWER_XMC/Libraries/CMSIS/Include/core_cm0.h"
   1:C:/Users/Lenovo/workspace/dave_workspace/SOLAR_TOWER_XMC/Libraries/CMSIS/Include\core_cm0.h **** /**************************************************************************//**
   2:C:/Users/Lenovo/workspace/dave_workspace/SOLAR_TOWER_XMC/Libraries/CMSIS/Include\core_cm0.h ****  * @file     core_cm0.h
   3:C:/Users/Lenovo/workspace/dave_workspace/SOLAR_TOWER_XMC/Libraries/CMSIS/Include\core_cm0.h ****  * @brief    CMSIS Cortex-M0 Core Peripheral Access Layer Header File
   4:C:/Users/Lenovo/workspace/dave_workspace/SOLAR_TOWER_XMC/Libraries/CMSIS/Include\core_cm0.h ****  * @version  V5.0.6
   5:C:/Users/Lenovo/workspace/dave_workspace/SOLAR_TOWER_XMC/Libraries/CMSIS/Include\core_cm0.h ****  * @date     13. March 2019
   6:C:/Users/Lenovo/workspace/dave_workspace/SOLAR_TOWER_XMC/Libraries/CMSIS/Include\core_cm0.h ****  ******************************************************************************/
   7:C:/Users/Lenovo/workspace/dave_workspace/SOLAR_TOWER_XMC/Libraries/CMSIS/Include\core_cm0.h **** /*
   8:C:/Users/Lenovo/workspace/dave_workspace/SOLAR_TOWER_XMC/Libraries/CMSIS/Include\core_cm0.h ****  * Copyright (c) 2009-2019 Arm Limited. All rights reserved.
   9:C:/Users/Lenovo/workspace/dave_workspace/SOLAR_TOWER_XMC/Libraries/CMSIS/Include\core_cm0.h ****  *
  10:C:/Users/Lenovo/workspace/dave_workspace/SOLAR_TOWER_XMC/Libraries/CMSIS/Include\core_cm0.h ****  * SPDX-License-Identifier: Apache-2.0
  11:C:/Users/Lenovo/workspace/dave_workspace/SOLAR_TOWER_XMC/Libraries/CMSIS/Include\core_cm0.h ****  *
  12:C:/Users/Lenovo/workspace/dave_workspace/SOLAR_TOWER_XMC/Libraries/CMSIS/Include\core_cm0.h ****  * Licensed under the Apache License, Version 2.0 (the License); you may
  13:C:/Users/Lenovo/workspace/dave_workspace/SOLAR_TOWER_XMC/Libraries/CMSIS/Include\core_cm0.h ****  * not use this file except in compliance with the License.
  14:C:/Users/Lenovo/workspace/dave_workspace/SOLAR_TOWER_XMC/Libraries/CMSIS/Include\core_cm0.h ****  * You may obtain a copy of the License at
  15:C:/Users/Lenovo/workspace/dave_workspace/SOLAR_TOWER_XMC/Libraries/CMSIS/Include\core_cm0.h ****  *
  16:C:/Users/Lenovo/workspace/dave_workspace/SOLAR_TOWER_XMC/Libraries/CMSIS/Include\core_cm0.h ****  * www.apache.org/licenses/LICENSE-2.0
  17:C:/Users/Lenovo/workspace/dave_workspace/SOLAR_TOWER_XMC/Libraries/CMSIS/Include\core_cm0.h ****  *
  18:C:/Users/Lenovo/workspace/dave_workspace/SOLAR_TOWER_XMC/Libraries/CMSIS/Include\core_cm0.h ****  * Unless required by applicable law or agreed to in writing, software
  19:C:/Users/Lenovo/workspace/dave_workspace/SOLAR_TOWER_XMC/Libraries/CMSIS/Include\core_cm0.h ****  * distributed under the License is distributed on an AS IS BASIS, WITHOUT
  20:C:/Users/Lenovo/workspace/dave_workspace/SOLAR_TOWER_XMC/Libraries/CMSIS/Include\core_cm0.h ****  * WARRANTIES OR CONDITIONS OF ANY KIND, either express or implied.
  21:C:/Users/Lenovo/workspace/dave_workspace/SOLAR_TOWER_XMC/Libraries/CMSIS/Include\core_cm0.h ****  * See the License for the specific language governing permissions and
  22:C:/Users/Lenovo/workspace/dave_workspace/SOLAR_TOWER_XMC/Libraries/CMSIS/Include\core_cm0.h ****  * limitations under the License.
  23:C:/Users/Lenovo/workspace/dave_workspace/SOLAR_TOWER_XMC/Libraries/CMSIS/Include\core_cm0.h ****  */
  24:C:/Users/Lenovo/workspace/dave_workspace/SOLAR_TOWER_XMC/Libraries/CMSIS/Include\core_cm0.h **** 
  25:C:/Users/Lenovo/workspace/dave_workspace/SOLAR_TOWER_XMC/Libraries/CMSIS/Include\core_cm0.h **** #if   defined ( __ICCARM__ )
  26:C:/Users/Lenovo/workspace/dave_workspace/SOLAR_TOWER_XMC/Libraries/CMSIS/Include\core_cm0.h ****   #pragma system_include         /* treat file as system include file for MISRA check */
  27:C:/Users/Lenovo/workspace/dave_workspace/SOLAR_TOWER_XMC/Libraries/CMSIS/Include\core_cm0.h **** #elif defined (__clang__)
  28:C:/Users/Lenovo/workspace/dave_workspace/SOLAR_TOWER_XMC/Libraries/CMSIS/Include\core_cm0.h ****   #pragma clang system_header   /* treat file as system include file */
  29:C:/Users/Lenovo/workspace/dave_workspace/SOLAR_TOWER_XMC/Libraries/CMSIS/Include\core_cm0.h **** #endif
  30:C:/Users/Lenovo/workspace/dave_workspace/SOLAR_TOWER_XMC/Libraries/CMSIS/Include\core_cm0.h **** 
  31:C:/Users/Lenovo/workspace/dave_workspace/SOLAR_TOWER_XMC/Libraries/CMSIS/Include\core_cm0.h **** #ifndef __CORE_CM0_H_GENERIC
  32:C:/Users/Lenovo/workspace/dave_workspace/SOLAR_TOWER_XMC/Libraries/CMSIS/Include\core_cm0.h **** #define __CORE_CM0_H_GENERIC
  33:C:/Users/Lenovo/workspace/dave_workspace/SOLAR_TOWER_XMC/Libraries/CMSIS/Include\core_cm0.h **** 
  34:C:/Users/Lenovo/workspace/dave_workspace/SOLAR_TOWER_XMC/Libraries/CMSIS/Include\core_cm0.h **** #include <stdint.h>
  35:C:/Users/Lenovo/workspace/dave_workspace/SOLAR_TOWER_XMC/Libraries/CMSIS/Include\core_cm0.h **** 
  36:C:/Users/Lenovo/workspace/dave_workspace/SOLAR_TOWER_XMC/Libraries/CMSIS/Include\core_cm0.h **** #ifdef __cplusplus
  37:C:/Users/Lenovo/workspace/dave_workspace/SOLAR_TOWER_XMC/Libraries/CMSIS/Include\core_cm0.h ****  extern "C" {
  38:C:/Users/Lenovo/workspace/dave_workspace/SOLAR_TOWER_XMC/Libraries/CMSIS/Include\core_cm0.h **** #endif
  39:C:/Users/Lenovo/workspace/dave_workspace/SOLAR_TOWER_XMC/Libraries/CMSIS/Include\core_cm0.h **** 
  40:C:/Users/Lenovo/workspace/dave_workspace/SOLAR_TOWER_XMC/Libraries/CMSIS/Include\core_cm0.h **** /**
  41:C:/Users/Lenovo/workspace/dave_workspace/SOLAR_TOWER_XMC/Libraries/CMSIS/Include\core_cm0.h ****   \page CMSIS_MISRA_Exceptions  MISRA-C:2004 Compliance Exceptions
  42:C:/Users/Lenovo/workspace/dave_workspace/SOLAR_TOWER_XMC/Libraries/CMSIS/Include\core_cm0.h ****   CMSIS violates the following MISRA-C:2004 rules:
  43:C:/Users/Lenovo/workspace/dave_workspace/SOLAR_TOWER_XMC/Libraries/CMSIS/Include\core_cm0.h **** 
  44:C:/Users/Lenovo/workspace/dave_workspace/SOLAR_TOWER_XMC/Libraries/CMSIS/Include\core_cm0.h ****    \li Required Rule 8.5, object/function definition in header file.<br>
  45:C:/Users/Lenovo/workspace/dave_workspace/SOLAR_TOWER_XMC/Libraries/CMSIS/Include\core_cm0.h ****      Function definitions in header files are used to allow 'inlining'.
  46:C:/Users/Lenovo/workspace/dave_workspace/SOLAR_TOWER_XMC/Libraries/CMSIS/Include\core_cm0.h **** 
  47:C:/Users/Lenovo/workspace/dave_workspace/SOLAR_TOWER_XMC/Libraries/CMSIS/Include\core_cm0.h ****    \li Required Rule 18.4, declaration of union type or object of union type: '{...}'.<br>
  48:C:/Users/Lenovo/workspace/dave_workspace/SOLAR_TOWER_XMC/Libraries/CMSIS/Include\core_cm0.h ****      Unions are used for effective representation of core registers.
  49:C:/Users/Lenovo/workspace/dave_workspace/SOLAR_TOWER_XMC/Libraries/CMSIS/Include\core_cm0.h **** 
  50:C:/Users/Lenovo/workspace/dave_workspace/SOLAR_TOWER_XMC/Libraries/CMSIS/Include\core_cm0.h ****    \li Advisory Rule 19.7, Function-like macro defined.<br>
  51:C:/Users/Lenovo/workspace/dave_workspace/SOLAR_TOWER_XMC/Libraries/CMSIS/Include\core_cm0.h ****      Function-like macros are used to allow more efficient code.
  52:C:/Users/Lenovo/workspace/dave_workspace/SOLAR_TOWER_XMC/Libraries/CMSIS/Include\core_cm0.h ****  */
  53:C:/Users/Lenovo/workspace/dave_workspace/SOLAR_TOWER_XMC/Libraries/CMSIS/Include\core_cm0.h **** 
  54:C:/Users/Lenovo/workspace/dave_workspace/SOLAR_TOWER_XMC/Libraries/CMSIS/Include\core_cm0.h **** 
  55:C:/Users/Lenovo/workspace/dave_workspace/SOLAR_TOWER_XMC/Libraries/CMSIS/Include\core_cm0.h **** /*******************************************************************************
  56:C:/Users/Lenovo/workspace/dave_workspace/SOLAR_TOWER_XMC/Libraries/CMSIS/Include\core_cm0.h ****  *                 CMSIS definitions
  57:C:/Users/Lenovo/workspace/dave_workspace/SOLAR_TOWER_XMC/Libraries/CMSIS/Include\core_cm0.h ****  ******************************************************************************/
  58:C:/Users/Lenovo/workspace/dave_workspace/SOLAR_TOWER_XMC/Libraries/CMSIS/Include\core_cm0.h **** /**
  59:C:/Users/Lenovo/workspace/dave_workspace/SOLAR_TOWER_XMC/Libraries/CMSIS/Include\core_cm0.h ****   \ingroup Cortex_M0
  60:C:/Users/Lenovo/workspace/dave_workspace/SOLAR_TOWER_XMC/Libraries/CMSIS/Include\core_cm0.h ****   @{
  61:C:/Users/Lenovo/workspace/dave_workspace/SOLAR_TOWER_XMC/Libraries/CMSIS/Include\core_cm0.h ****  */
  62:C:/Users/Lenovo/workspace/dave_workspace/SOLAR_TOWER_XMC/Libraries/CMSIS/Include\core_cm0.h **** 
  63:C:/Users/Lenovo/workspace/dave_workspace/SOLAR_TOWER_XMC/Libraries/CMSIS/Include\core_cm0.h **** #include "cmsis_version.h"
  64:C:/Users/Lenovo/workspace/dave_workspace/SOLAR_TOWER_XMC/Libraries/CMSIS/Include\core_cm0.h ****  
  65:C:/Users/Lenovo/workspace/dave_workspace/SOLAR_TOWER_XMC/Libraries/CMSIS/Include\core_cm0.h **** /*  CMSIS CM0 definitions */
  66:C:/Users/Lenovo/workspace/dave_workspace/SOLAR_TOWER_XMC/Libraries/CMSIS/Include\core_cm0.h **** #define __CM0_CMSIS_VERSION_MAIN  (__CM_CMSIS_VERSION_MAIN)              /*!< \deprecated [31:16] C
  67:C:/Users/Lenovo/workspace/dave_workspace/SOLAR_TOWER_XMC/Libraries/CMSIS/Include\core_cm0.h **** #define __CM0_CMSIS_VERSION_SUB   (__CM_CMSIS_VERSION_SUB)               /*!< \deprecated [15:0]  C
  68:C:/Users/Lenovo/workspace/dave_workspace/SOLAR_TOWER_XMC/Libraries/CMSIS/Include\core_cm0.h **** #define __CM0_CMSIS_VERSION       ((__CM0_CMSIS_VERSION_MAIN << 16U) | \
  69:C:/Users/Lenovo/workspace/dave_workspace/SOLAR_TOWER_XMC/Libraries/CMSIS/Include\core_cm0.h ****                                     __CM0_CMSIS_VERSION_SUB           )  /*!< \deprecated CMSIS HAL
  70:C:/Users/Lenovo/workspace/dave_workspace/SOLAR_TOWER_XMC/Libraries/CMSIS/Include\core_cm0.h **** 
  71:C:/Users/Lenovo/workspace/dave_workspace/SOLAR_TOWER_XMC/Libraries/CMSIS/Include\core_cm0.h **** #define __CORTEX_M                (0U)                                   /*!< Cortex-M Core */
  72:C:/Users/Lenovo/workspace/dave_workspace/SOLAR_TOWER_XMC/Libraries/CMSIS/Include\core_cm0.h **** 
  73:C:/Users/Lenovo/workspace/dave_workspace/SOLAR_TOWER_XMC/Libraries/CMSIS/Include\core_cm0.h **** /** __FPU_USED indicates whether an FPU is used or not.
  74:C:/Users/Lenovo/workspace/dave_workspace/SOLAR_TOWER_XMC/Libraries/CMSIS/Include\core_cm0.h ****     This core does not support an FPU at all
  75:C:/Users/Lenovo/workspace/dave_workspace/SOLAR_TOWER_XMC/Libraries/CMSIS/Include\core_cm0.h **** */
  76:C:/Users/Lenovo/workspace/dave_workspace/SOLAR_TOWER_XMC/Libraries/CMSIS/Include\core_cm0.h **** #define __FPU_USED       0U
  77:C:/Users/Lenovo/workspace/dave_workspace/SOLAR_TOWER_XMC/Libraries/CMSIS/Include\core_cm0.h **** 
  78:C:/Users/Lenovo/workspace/dave_workspace/SOLAR_TOWER_XMC/Libraries/CMSIS/Include\core_cm0.h **** #if defined ( __CC_ARM )
  79:C:/Users/Lenovo/workspace/dave_workspace/SOLAR_TOWER_XMC/Libraries/CMSIS/Include\core_cm0.h ****   #if defined __TARGET_FPU_VFP
  80:C:/Users/Lenovo/workspace/dave_workspace/SOLAR_TOWER_XMC/Libraries/CMSIS/Include\core_cm0.h ****     #error "Compiler generates FPU instructions for a device without an FPU (check __FPU_PRESENT)"
  81:C:/Users/Lenovo/workspace/dave_workspace/SOLAR_TOWER_XMC/Libraries/CMSIS/Include\core_cm0.h ****   #endif
  82:C:/Users/Lenovo/workspace/dave_workspace/SOLAR_TOWER_XMC/Libraries/CMSIS/Include\core_cm0.h **** 
  83:C:/Users/Lenovo/workspace/dave_workspace/SOLAR_TOWER_XMC/Libraries/CMSIS/Include\core_cm0.h **** #elif defined (__ARMCC_VERSION) && (__ARMCC_VERSION >= 6010050)
  84:C:/Users/Lenovo/workspace/dave_workspace/SOLAR_TOWER_XMC/Libraries/CMSIS/Include\core_cm0.h ****   #if defined __ARM_FP
  85:C:/Users/Lenovo/workspace/dave_workspace/SOLAR_TOWER_XMC/Libraries/CMSIS/Include\core_cm0.h ****     #error "Compiler generates FPU instructions for a device without an FPU (check __FPU_PRESENT)"
  86:C:/Users/Lenovo/workspace/dave_workspace/SOLAR_TOWER_XMC/Libraries/CMSIS/Include\core_cm0.h ****   #endif
  87:C:/Users/Lenovo/workspace/dave_workspace/SOLAR_TOWER_XMC/Libraries/CMSIS/Include\core_cm0.h **** 
  88:C:/Users/Lenovo/workspace/dave_workspace/SOLAR_TOWER_XMC/Libraries/CMSIS/Include\core_cm0.h **** #elif defined ( __GNUC__ )
  89:C:/Users/Lenovo/workspace/dave_workspace/SOLAR_TOWER_XMC/Libraries/CMSIS/Include\core_cm0.h ****   #if defined (__VFP_FP__) && !defined(__SOFTFP__)
  90:C:/Users/Lenovo/workspace/dave_workspace/SOLAR_TOWER_XMC/Libraries/CMSIS/Include\core_cm0.h ****     #error "Compiler generates FPU instructions for a device without an FPU (check __FPU_PRESENT)"
  91:C:/Users/Lenovo/workspace/dave_workspace/SOLAR_TOWER_XMC/Libraries/CMSIS/Include\core_cm0.h ****   #endif
  92:C:/Users/Lenovo/workspace/dave_workspace/SOLAR_TOWER_XMC/Libraries/CMSIS/Include\core_cm0.h **** 
  93:C:/Users/Lenovo/workspace/dave_workspace/SOLAR_TOWER_XMC/Libraries/CMSIS/Include\core_cm0.h **** #elif defined ( __ICCARM__ )
  94:C:/Users/Lenovo/workspace/dave_workspace/SOLAR_TOWER_XMC/Libraries/CMSIS/Include\core_cm0.h ****   #if defined __ARMVFP__
  95:C:/Users/Lenovo/workspace/dave_workspace/SOLAR_TOWER_XMC/Libraries/CMSIS/Include\core_cm0.h ****     #error "Compiler generates FPU instructions for a device without an FPU (check __FPU_PRESENT)"
  96:C:/Users/Lenovo/workspace/dave_workspace/SOLAR_TOWER_XMC/Libraries/CMSIS/Include\core_cm0.h ****   #endif
  97:C:/Users/Lenovo/workspace/dave_workspace/SOLAR_TOWER_XMC/Libraries/CMSIS/Include\core_cm0.h **** 
  98:C:/Users/Lenovo/workspace/dave_workspace/SOLAR_TOWER_XMC/Libraries/CMSIS/Include\core_cm0.h **** #elif defined ( __TI_ARM__ )
  99:C:/Users/Lenovo/workspace/dave_workspace/SOLAR_TOWER_XMC/Libraries/CMSIS/Include\core_cm0.h ****   #if defined __TI_VFP_SUPPORT__
 100:C:/Users/Lenovo/workspace/dave_workspace/SOLAR_TOWER_XMC/Libraries/CMSIS/Include\core_cm0.h ****     #error "Compiler generates FPU instructions for a device without an FPU (check __FPU_PRESENT)"
 101:C:/Users/Lenovo/workspace/dave_workspace/SOLAR_TOWER_XMC/Libraries/CMSIS/Include\core_cm0.h ****   #endif
 102:C:/Users/Lenovo/workspace/dave_workspace/SOLAR_TOWER_XMC/Libraries/CMSIS/Include\core_cm0.h **** 
 103:C:/Users/Lenovo/workspace/dave_workspace/SOLAR_TOWER_XMC/Libraries/CMSIS/Include\core_cm0.h **** #elif defined ( __TASKING__ )
 104:C:/Users/Lenovo/workspace/dave_workspace/SOLAR_TOWER_XMC/Libraries/CMSIS/Include\core_cm0.h ****   #if defined __FPU_VFP__
 105:C:/Users/Lenovo/workspace/dave_workspace/SOLAR_TOWER_XMC/Libraries/CMSIS/Include\core_cm0.h ****     #error "Compiler generates FPU instructions for a device without an FPU (check __FPU_PRESENT)"
 106:C:/Users/Lenovo/workspace/dave_workspace/SOLAR_TOWER_XMC/Libraries/CMSIS/Include\core_cm0.h ****   #endif
 107:C:/Users/Lenovo/workspace/dave_workspace/SOLAR_TOWER_XMC/Libraries/CMSIS/Include\core_cm0.h **** 
 108:C:/Users/Lenovo/workspace/dave_workspace/SOLAR_TOWER_XMC/Libraries/CMSIS/Include\core_cm0.h **** #elif defined ( __CSMC__ )
 109:C:/Users/Lenovo/workspace/dave_workspace/SOLAR_TOWER_XMC/Libraries/CMSIS/Include\core_cm0.h ****   #if ( __CSMC__ & 0x400U)
 110:C:/Users/Lenovo/workspace/dave_workspace/SOLAR_TOWER_XMC/Libraries/CMSIS/Include\core_cm0.h ****     #error "Compiler generates FPU instructions for a device without an FPU (check __FPU_PRESENT)"
 111:C:/Users/Lenovo/workspace/dave_workspace/SOLAR_TOWER_XMC/Libraries/CMSIS/Include\core_cm0.h ****   #endif
 112:C:/Users/Lenovo/workspace/dave_workspace/SOLAR_TOWER_XMC/Libraries/CMSIS/Include\core_cm0.h **** 
 113:C:/Users/Lenovo/workspace/dave_workspace/SOLAR_TOWER_XMC/Libraries/CMSIS/Include\core_cm0.h **** #endif
 114:C:/Users/Lenovo/workspace/dave_workspace/SOLAR_TOWER_XMC/Libraries/CMSIS/Include\core_cm0.h **** 
 115:C:/Users/Lenovo/workspace/dave_workspace/SOLAR_TOWER_XMC/Libraries/CMSIS/Include\core_cm0.h **** #include "cmsis_compiler.h"               /* CMSIS compiler specific defines */
 116:C:/Users/Lenovo/workspace/dave_workspace/SOLAR_TOWER_XMC/Libraries/CMSIS/Include\core_cm0.h **** 
 117:C:/Users/Lenovo/workspace/dave_workspace/SOLAR_TOWER_XMC/Libraries/CMSIS/Include\core_cm0.h **** 
 118:C:/Users/Lenovo/workspace/dave_workspace/SOLAR_TOWER_XMC/Libraries/CMSIS/Include\core_cm0.h **** #ifdef __cplusplus
 119:C:/Users/Lenovo/workspace/dave_workspace/SOLAR_TOWER_XMC/Libraries/CMSIS/Include\core_cm0.h **** }
 120:C:/Users/Lenovo/workspace/dave_workspace/SOLAR_TOWER_XMC/Libraries/CMSIS/Include\core_cm0.h **** #endif
 121:C:/Users/Lenovo/workspace/dave_workspace/SOLAR_TOWER_XMC/Libraries/CMSIS/Include\core_cm0.h **** 
 122:C:/Users/Lenovo/workspace/dave_workspace/SOLAR_TOWER_XMC/Libraries/CMSIS/Include\core_cm0.h **** #endif /* __CORE_CM0_H_GENERIC */
 123:C:/Users/Lenovo/workspace/dave_workspace/SOLAR_TOWER_XMC/Libraries/CMSIS/Include\core_cm0.h **** 
 124:C:/Users/Lenovo/workspace/dave_workspace/SOLAR_TOWER_XMC/Libraries/CMSIS/Include\core_cm0.h **** #ifndef __CMSIS_GENERIC
 125:C:/Users/Lenovo/workspace/dave_workspace/SOLAR_TOWER_XMC/Libraries/CMSIS/Include\core_cm0.h **** 
 126:C:/Users/Lenovo/workspace/dave_workspace/SOLAR_TOWER_XMC/Libraries/CMSIS/Include\core_cm0.h **** #ifndef __CORE_CM0_H_DEPENDANT
 127:C:/Users/Lenovo/workspace/dave_workspace/SOLAR_TOWER_XMC/Libraries/CMSIS/Include\core_cm0.h **** #define __CORE_CM0_H_DEPENDANT
 128:C:/Users/Lenovo/workspace/dave_workspace/SOLAR_TOWER_XMC/Libraries/CMSIS/Include\core_cm0.h **** 
 129:C:/Users/Lenovo/workspace/dave_workspace/SOLAR_TOWER_XMC/Libraries/CMSIS/Include\core_cm0.h **** #ifdef __cplusplus
 130:C:/Users/Lenovo/workspace/dave_workspace/SOLAR_TOWER_XMC/Libraries/CMSIS/Include\core_cm0.h ****  extern "C" {
 131:C:/Users/Lenovo/workspace/dave_workspace/SOLAR_TOWER_XMC/Libraries/CMSIS/Include\core_cm0.h **** #endif
 132:C:/Users/Lenovo/workspace/dave_workspace/SOLAR_TOWER_XMC/Libraries/CMSIS/Include\core_cm0.h **** 
 133:C:/Users/Lenovo/workspace/dave_workspace/SOLAR_TOWER_XMC/Libraries/CMSIS/Include\core_cm0.h **** /* check device defines and use defaults */
 134:C:/Users/Lenovo/workspace/dave_workspace/SOLAR_TOWER_XMC/Libraries/CMSIS/Include\core_cm0.h **** #if defined __CHECK_DEVICE_DEFINES
 135:C:/Users/Lenovo/workspace/dave_workspace/SOLAR_TOWER_XMC/Libraries/CMSIS/Include\core_cm0.h ****   #ifndef __CM0_REV
 136:C:/Users/Lenovo/workspace/dave_workspace/SOLAR_TOWER_XMC/Libraries/CMSIS/Include\core_cm0.h ****     #define __CM0_REV               0x0000U
 137:C:/Users/Lenovo/workspace/dave_workspace/SOLAR_TOWER_XMC/Libraries/CMSIS/Include\core_cm0.h ****     #warning "__CM0_REV not defined in device header file; using default!"
 138:C:/Users/Lenovo/workspace/dave_workspace/SOLAR_TOWER_XMC/Libraries/CMSIS/Include\core_cm0.h ****   #endif
 139:C:/Users/Lenovo/workspace/dave_workspace/SOLAR_TOWER_XMC/Libraries/CMSIS/Include\core_cm0.h **** 
 140:C:/Users/Lenovo/workspace/dave_workspace/SOLAR_TOWER_XMC/Libraries/CMSIS/Include\core_cm0.h ****   #ifndef __NVIC_PRIO_BITS
 141:C:/Users/Lenovo/workspace/dave_workspace/SOLAR_TOWER_XMC/Libraries/CMSIS/Include\core_cm0.h ****     #define __NVIC_PRIO_BITS          2U
 142:C:/Users/Lenovo/workspace/dave_workspace/SOLAR_TOWER_XMC/Libraries/CMSIS/Include\core_cm0.h ****     #warning "__NVIC_PRIO_BITS not defined in device header file; using default!"
 143:C:/Users/Lenovo/workspace/dave_workspace/SOLAR_TOWER_XMC/Libraries/CMSIS/Include\core_cm0.h ****   #endif
 144:C:/Users/Lenovo/workspace/dave_workspace/SOLAR_TOWER_XMC/Libraries/CMSIS/Include\core_cm0.h **** 
 145:C:/Users/Lenovo/workspace/dave_workspace/SOLAR_TOWER_XMC/Libraries/CMSIS/Include\core_cm0.h ****   #ifndef __Vendor_SysTickConfig
 146:C:/Users/Lenovo/workspace/dave_workspace/SOLAR_TOWER_XMC/Libraries/CMSIS/Include\core_cm0.h ****     #define __Vendor_SysTickConfig    0U
 147:C:/Users/Lenovo/workspace/dave_workspace/SOLAR_TOWER_XMC/Libraries/CMSIS/Include\core_cm0.h ****     #warning "__Vendor_SysTickConfig not defined in device header file; using default!"
 148:C:/Users/Lenovo/workspace/dave_workspace/SOLAR_TOWER_XMC/Libraries/CMSIS/Include\core_cm0.h ****   #endif
 149:C:/Users/Lenovo/workspace/dave_workspace/SOLAR_TOWER_XMC/Libraries/CMSIS/Include\core_cm0.h **** #endif
 150:C:/Users/Lenovo/workspace/dave_workspace/SOLAR_TOWER_XMC/Libraries/CMSIS/Include\core_cm0.h **** 
 151:C:/Users/Lenovo/workspace/dave_workspace/SOLAR_TOWER_XMC/Libraries/CMSIS/Include\core_cm0.h **** /* IO definitions (access restrictions to peripheral registers) */
 152:C:/Users/Lenovo/workspace/dave_workspace/SOLAR_TOWER_XMC/Libraries/CMSIS/Include\core_cm0.h **** /**
 153:C:/Users/Lenovo/workspace/dave_workspace/SOLAR_TOWER_XMC/Libraries/CMSIS/Include\core_cm0.h ****     \defgroup CMSIS_glob_defs CMSIS Global Defines
 154:C:/Users/Lenovo/workspace/dave_workspace/SOLAR_TOWER_XMC/Libraries/CMSIS/Include\core_cm0.h **** 
 155:C:/Users/Lenovo/workspace/dave_workspace/SOLAR_TOWER_XMC/Libraries/CMSIS/Include\core_cm0.h ****     <strong>IO Type Qualifiers</strong> are used
 156:C:/Users/Lenovo/workspace/dave_workspace/SOLAR_TOWER_XMC/Libraries/CMSIS/Include\core_cm0.h ****     \li to specify the access to peripheral variables.
 157:C:/Users/Lenovo/workspace/dave_workspace/SOLAR_TOWER_XMC/Libraries/CMSIS/Include\core_cm0.h ****     \li for automatic generation of peripheral register debug information.
 158:C:/Users/Lenovo/workspace/dave_workspace/SOLAR_TOWER_XMC/Libraries/CMSIS/Include\core_cm0.h **** */
 159:C:/Users/Lenovo/workspace/dave_workspace/SOLAR_TOWER_XMC/Libraries/CMSIS/Include\core_cm0.h **** #ifdef __cplusplus
 160:C:/Users/Lenovo/workspace/dave_workspace/SOLAR_TOWER_XMC/Libraries/CMSIS/Include\core_cm0.h ****   #define   __I     volatile             /*!< Defines 'read only' permissions */
 161:C:/Users/Lenovo/workspace/dave_workspace/SOLAR_TOWER_XMC/Libraries/CMSIS/Include\core_cm0.h **** #else
 162:C:/Users/Lenovo/workspace/dave_workspace/SOLAR_TOWER_XMC/Libraries/CMSIS/Include\core_cm0.h ****   #define   __I     volatile const       /*!< Defines 'read only' permissions */
 163:C:/Users/Lenovo/workspace/dave_workspace/SOLAR_TOWER_XMC/Libraries/CMSIS/Include\core_cm0.h **** #endif
 164:C:/Users/Lenovo/workspace/dave_workspace/SOLAR_TOWER_XMC/Libraries/CMSIS/Include\core_cm0.h **** #define     __O     volatile             /*!< Defines 'write only' permissions */
 165:C:/Users/Lenovo/workspace/dave_workspace/SOLAR_TOWER_XMC/Libraries/CMSIS/Include\core_cm0.h **** #define     __IO    volatile             /*!< Defines 'read / write' permissions */
 166:C:/Users/Lenovo/workspace/dave_workspace/SOLAR_TOWER_XMC/Libraries/CMSIS/Include\core_cm0.h **** 
 167:C:/Users/Lenovo/workspace/dave_workspace/SOLAR_TOWER_XMC/Libraries/CMSIS/Include\core_cm0.h **** /* following defines should be used for structure members */
 168:C:/Users/Lenovo/workspace/dave_workspace/SOLAR_TOWER_XMC/Libraries/CMSIS/Include\core_cm0.h **** #define     __IM     volatile const      /*! Defines 'read only' structure member permissions */
 169:C:/Users/Lenovo/workspace/dave_workspace/SOLAR_TOWER_XMC/Libraries/CMSIS/Include\core_cm0.h **** #define     __OM     volatile            /*! Defines 'write only' structure member permissions */
 170:C:/Users/Lenovo/workspace/dave_workspace/SOLAR_TOWER_XMC/Libraries/CMSIS/Include\core_cm0.h **** #define     __IOM    volatile            /*! Defines 'read / write' structure member permissions */
 171:C:/Users/Lenovo/workspace/dave_workspace/SOLAR_TOWER_XMC/Libraries/CMSIS/Include\core_cm0.h **** 
 172:C:/Users/Lenovo/workspace/dave_workspace/SOLAR_TOWER_XMC/Libraries/CMSIS/Include\core_cm0.h **** /*@} end of group Cortex_M0 */
 173:C:/Users/Lenovo/workspace/dave_workspace/SOLAR_TOWER_XMC/Libraries/CMSIS/Include\core_cm0.h **** 
 174:C:/Users/Lenovo/workspace/dave_workspace/SOLAR_TOWER_XMC/Libraries/CMSIS/Include\core_cm0.h **** 
 175:C:/Users/Lenovo/workspace/dave_workspace/SOLAR_TOWER_XMC/Libraries/CMSIS/Include\core_cm0.h **** 
 176:C:/Users/Lenovo/workspace/dave_workspace/SOLAR_TOWER_XMC/Libraries/CMSIS/Include\core_cm0.h **** /*******************************************************************************
 177:C:/Users/Lenovo/workspace/dave_workspace/SOLAR_TOWER_XMC/Libraries/CMSIS/Include\core_cm0.h ****  *                 Register Abstraction
 178:C:/Users/Lenovo/workspace/dave_workspace/SOLAR_TOWER_XMC/Libraries/CMSIS/Include\core_cm0.h ****   Core Register contain:
 179:C:/Users/Lenovo/workspace/dave_workspace/SOLAR_TOWER_XMC/Libraries/CMSIS/Include\core_cm0.h ****   - Core Register
 180:C:/Users/Lenovo/workspace/dave_workspace/SOLAR_TOWER_XMC/Libraries/CMSIS/Include\core_cm0.h ****   - Core NVIC Register
 181:C:/Users/Lenovo/workspace/dave_workspace/SOLAR_TOWER_XMC/Libraries/CMSIS/Include\core_cm0.h ****   - Core SCB Register
 182:C:/Users/Lenovo/workspace/dave_workspace/SOLAR_TOWER_XMC/Libraries/CMSIS/Include\core_cm0.h ****   - Core SysTick Register
 183:C:/Users/Lenovo/workspace/dave_workspace/SOLAR_TOWER_XMC/Libraries/CMSIS/Include\core_cm0.h ****  ******************************************************************************/
 184:C:/Users/Lenovo/workspace/dave_workspace/SOLAR_TOWER_XMC/Libraries/CMSIS/Include\core_cm0.h **** /**
 185:C:/Users/Lenovo/workspace/dave_workspace/SOLAR_TOWER_XMC/Libraries/CMSIS/Include\core_cm0.h ****   \defgroup CMSIS_core_register Defines and Type Definitions
 186:C:/Users/Lenovo/workspace/dave_workspace/SOLAR_TOWER_XMC/Libraries/CMSIS/Include\core_cm0.h ****   \brief Type definitions and defines for Cortex-M processor based devices.
 187:C:/Users/Lenovo/workspace/dave_workspace/SOLAR_TOWER_XMC/Libraries/CMSIS/Include\core_cm0.h **** */
 188:C:/Users/Lenovo/workspace/dave_workspace/SOLAR_TOWER_XMC/Libraries/CMSIS/Include\core_cm0.h **** 
 189:C:/Users/Lenovo/workspace/dave_workspace/SOLAR_TOWER_XMC/Libraries/CMSIS/Include\core_cm0.h **** /**
 190:C:/Users/Lenovo/workspace/dave_workspace/SOLAR_TOWER_XMC/Libraries/CMSIS/Include\core_cm0.h ****   \ingroup    CMSIS_core_register
 191:C:/Users/Lenovo/workspace/dave_workspace/SOLAR_TOWER_XMC/Libraries/CMSIS/Include\core_cm0.h ****   \defgroup   CMSIS_CORE  Status and Control Registers
 192:C:/Users/Lenovo/workspace/dave_workspace/SOLAR_TOWER_XMC/Libraries/CMSIS/Include\core_cm0.h ****   \brief      Core Register type definitions.
 193:C:/Users/Lenovo/workspace/dave_workspace/SOLAR_TOWER_XMC/Libraries/CMSIS/Include\core_cm0.h ****   @{
 194:C:/Users/Lenovo/workspace/dave_workspace/SOLAR_TOWER_XMC/Libraries/CMSIS/Include\core_cm0.h ****  */
 195:C:/Users/Lenovo/workspace/dave_workspace/SOLAR_TOWER_XMC/Libraries/CMSIS/Include\core_cm0.h **** 
 196:C:/Users/Lenovo/workspace/dave_workspace/SOLAR_TOWER_XMC/Libraries/CMSIS/Include\core_cm0.h **** /**
 197:C:/Users/Lenovo/workspace/dave_workspace/SOLAR_TOWER_XMC/Libraries/CMSIS/Include\core_cm0.h ****   \brief  Union type to access the Application Program Status Register (APSR).
 198:C:/Users/Lenovo/workspace/dave_workspace/SOLAR_TOWER_XMC/Libraries/CMSIS/Include\core_cm0.h ****  */
 199:C:/Users/Lenovo/workspace/dave_workspace/SOLAR_TOWER_XMC/Libraries/CMSIS/Include\core_cm0.h **** typedef union
 200:C:/Users/Lenovo/workspace/dave_workspace/SOLAR_TOWER_XMC/Libraries/CMSIS/Include\core_cm0.h **** {
 201:C:/Users/Lenovo/workspace/dave_workspace/SOLAR_TOWER_XMC/Libraries/CMSIS/Include\core_cm0.h ****   struct
 202:C:/Users/Lenovo/workspace/dave_workspace/SOLAR_TOWER_XMC/Libraries/CMSIS/Include\core_cm0.h ****   {
 203:C:/Users/Lenovo/workspace/dave_workspace/SOLAR_TOWER_XMC/Libraries/CMSIS/Include\core_cm0.h ****     uint32_t _reserved0:28;              /*!< bit:  0..27  Reserved */
 204:C:/Users/Lenovo/workspace/dave_workspace/SOLAR_TOWER_XMC/Libraries/CMSIS/Include\core_cm0.h ****     uint32_t V:1;                        /*!< bit:     28  Overflow condition code flag */
 205:C:/Users/Lenovo/workspace/dave_workspace/SOLAR_TOWER_XMC/Libraries/CMSIS/Include\core_cm0.h ****     uint32_t C:1;                        /*!< bit:     29  Carry condition code flag */
 206:C:/Users/Lenovo/workspace/dave_workspace/SOLAR_TOWER_XMC/Libraries/CMSIS/Include\core_cm0.h ****     uint32_t Z:1;                        /*!< bit:     30  Zero condition code flag */
 207:C:/Users/Lenovo/workspace/dave_workspace/SOLAR_TOWER_XMC/Libraries/CMSIS/Include\core_cm0.h ****     uint32_t N:1;                        /*!< bit:     31  Negative condition code flag */
 208:C:/Users/Lenovo/workspace/dave_workspace/SOLAR_TOWER_XMC/Libraries/CMSIS/Include\core_cm0.h ****   } b;                                   /*!< Structure used for bit  access */
 209:C:/Users/Lenovo/workspace/dave_workspace/SOLAR_TOWER_XMC/Libraries/CMSIS/Include\core_cm0.h ****   uint32_t w;                            /*!< Type      used for word access */
 210:C:/Users/Lenovo/workspace/dave_workspace/SOLAR_TOWER_XMC/Libraries/CMSIS/Include\core_cm0.h **** } APSR_Type;
 211:C:/Users/Lenovo/workspace/dave_workspace/SOLAR_TOWER_XMC/Libraries/CMSIS/Include\core_cm0.h **** 
 212:C:/Users/Lenovo/workspace/dave_workspace/SOLAR_TOWER_XMC/Libraries/CMSIS/Include\core_cm0.h **** /* APSR Register Definitions */
 213:C:/Users/Lenovo/workspace/dave_workspace/SOLAR_TOWER_XMC/Libraries/CMSIS/Include\core_cm0.h **** #define APSR_N_Pos                         31U                                            /*!< APSR
 214:C:/Users/Lenovo/workspace/dave_workspace/SOLAR_TOWER_XMC/Libraries/CMSIS/Include\core_cm0.h **** #define APSR_N_Msk                         (1UL << APSR_N_Pos)                            /*!< APSR
 215:C:/Users/Lenovo/workspace/dave_workspace/SOLAR_TOWER_XMC/Libraries/CMSIS/Include\core_cm0.h **** 
 216:C:/Users/Lenovo/workspace/dave_workspace/SOLAR_TOWER_XMC/Libraries/CMSIS/Include\core_cm0.h **** #define APSR_Z_Pos                         30U                                            /*!< APSR
 217:C:/Users/Lenovo/workspace/dave_workspace/SOLAR_TOWER_XMC/Libraries/CMSIS/Include\core_cm0.h **** #define APSR_Z_Msk                         (1UL << APSR_Z_Pos)                            /*!< APSR
 218:C:/Users/Lenovo/workspace/dave_workspace/SOLAR_TOWER_XMC/Libraries/CMSIS/Include\core_cm0.h **** 
 219:C:/Users/Lenovo/workspace/dave_workspace/SOLAR_TOWER_XMC/Libraries/CMSIS/Include\core_cm0.h **** #define APSR_C_Pos                         29U                                            /*!< APSR
 220:C:/Users/Lenovo/workspace/dave_workspace/SOLAR_TOWER_XMC/Libraries/CMSIS/Include\core_cm0.h **** #define APSR_C_Msk                         (1UL << APSR_C_Pos)                            /*!< APSR
 221:C:/Users/Lenovo/workspace/dave_workspace/SOLAR_TOWER_XMC/Libraries/CMSIS/Include\core_cm0.h **** 
 222:C:/Users/Lenovo/workspace/dave_workspace/SOLAR_TOWER_XMC/Libraries/CMSIS/Include\core_cm0.h **** #define APSR_V_Pos                         28U                                            /*!< APSR
 223:C:/Users/Lenovo/workspace/dave_workspace/SOLAR_TOWER_XMC/Libraries/CMSIS/Include\core_cm0.h **** #define APSR_V_Msk                         (1UL << APSR_V_Pos)                            /*!< APSR
 224:C:/Users/Lenovo/workspace/dave_workspace/SOLAR_TOWER_XMC/Libraries/CMSIS/Include\core_cm0.h **** 
 225:C:/Users/Lenovo/workspace/dave_workspace/SOLAR_TOWER_XMC/Libraries/CMSIS/Include\core_cm0.h **** 
 226:C:/Users/Lenovo/workspace/dave_workspace/SOLAR_TOWER_XMC/Libraries/CMSIS/Include\core_cm0.h **** /**
 227:C:/Users/Lenovo/workspace/dave_workspace/SOLAR_TOWER_XMC/Libraries/CMSIS/Include\core_cm0.h ****   \brief  Union type to access the Interrupt Program Status Register (IPSR).
 228:C:/Users/Lenovo/workspace/dave_workspace/SOLAR_TOWER_XMC/Libraries/CMSIS/Include\core_cm0.h ****  */
 229:C:/Users/Lenovo/workspace/dave_workspace/SOLAR_TOWER_XMC/Libraries/CMSIS/Include\core_cm0.h **** typedef union
 230:C:/Users/Lenovo/workspace/dave_workspace/SOLAR_TOWER_XMC/Libraries/CMSIS/Include\core_cm0.h **** {
 231:C:/Users/Lenovo/workspace/dave_workspace/SOLAR_TOWER_XMC/Libraries/CMSIS/Include\core_cm0.h ****   struct
 232:C:/Users/Lenovo/workspace/dave_workspace/SOLAR_TOWER_XMC/Libraries/CMSIS/Include\core_cm0.h ****   {
 233:C:/Users/Lenovo/workspace/dave_workspace/SOLAR_TOWER_XMC/Libraries/CMSIS/Include\core_cm0.h ****     uint32_t ISR:9;                      /*!< bit:  0.. 8  Exception number */
 234:C:/Users/Lenovo/workspace/dave_workspace/SOLAR_TOWER_XMC/Libraries/CMSIS/Include\core_cm0.h ****     uint32_t _reserved0:23;              /*!< bit:  9..31  Reserved */
 235:C:/Users/Lenovo/workspace/dave_workspace/SOLAR_TOWER_XMC/Libraries/CMSIS/Include\core_cm0.h ****   } b;                                   /*!< Structure used for bit  access */
 236:C:/Users/Lenovo/workspace/dave_workspace/SOLAR_TOWER_XMC/Libraries/CMSIS/Include\core_cm0.h ****   uint32_t w;                            /*!< Type      used for word access */
 237:C:/Users/Lenovo/workspace/dave_workspace/SOLAR_TOWER_XMC/Libraries/CMSIS/Include\core_cm0.h **** } IPSR_Type;
 238:C:/Users/Lenovo/workspace/dave_workspace/SOLAR_TOWER_XMC/Libraries/CMSIS/Include\core_cm0.h **** 
 239:C:/Users/Lenovo/workspace/dave_workspace/SOLAR_TOWER_XMC/Libraries/CMSIS/Include\core_cm0.h **** /* IPSR Register Definitions */
 240:C:/Users/Lenovo/workspace/dave_workspace/SOLAR_TOWER_XMC/Libraries/CMSIS/Include\core_cm0.h **** #define IPSR_ISR_Pos                        0U                                            /*!< IPSR
 241:C:/Users/Lenovo/workspace/dave_workspace/SOLAR_TOWER_XMC/Libraries/CMSIS/Include\core_cm0.h **** #define IPSR_ISR_Msk                       (0x1FFUL /*<< IPSR_ISR_Pos*/)                  /*!< IPSR
 242:C:/Users/Lenovo/workspace/dave_workspace/SOLAR_TOWER_XMC/Libraries/CMSIS/Include\core_cm0.h **** 
 243:C:/Users/Lenovo/workspace/dave_workspace/SOLAR_TOWER_XMC/Libraries/CMSIS/Include\core_cm0.h **** 
 244:C:/Users/Lenovo/workspace/dave_workspace/SOLAR_TOWER_XMC/Libraries/CMSIS/Include\core_cm0.h **** /**
 245:C:/Users/Lenovo/workspace/dave_workspace/SOLAR_TOWER_XMC/Libraries/CMSIS/Include\core_cm0.h ****   \brief  Union type to access the Special-Purpose Program Status Registers (xPSR).
 246:C:/Users/Lenovo/workspace/dave_workspace/SOLAR_TOWER_XMC/Libraries/CMSIS/Include\core_cm0.h ****  */
 247:C:/Users/Lenovo/workspace/dave_workspace/SOLAR_TOWER_XMC/Libraries/CMSIS/Include\core_cm0.h **** typedef union
 248:C:/Users/Lenovo/workspace/dave_workspace/SOLAR_TOWER_XMC/Libraries/CMSIS/Include\core_cm0.h **** {
 249:C:/Users/Lenovo/workspace/dave_workspace/SOLAR_TOWER_XMC/Libraries/CMSIS/Include\core_cm0.h ****   struct
 250:C:/Users/Lenovo/workspace/dave_workspace/SOLAR_TOWER_XMC/Libraries/CMSIS/Include\core_cm0.h ****   {
 251:C:/Users/Lenovo/workspace/dave_workspace/SOLAR_TOWER_XMC/Libraries/CMSIS/Include\core_cm0.h ****     uint32_t ISR:9;                      /*!< bit:  0.. 8  Exception number */
 252:C:/Users/Lenovo/workspace/dave_workspace/SOLAR_TOWER_XMC/Libraries/CMSIS/Include\core_cm0.h ****     uint32_t _reserved0:15;              /*!< bit:  9..23  Reserved */
 253:C:/Users/Lenovo/workspace/dave_workspace/SOLAR_TOWER_XMC/Libraries/CMSIS/Include\core_cm0.h ****     uint32_t T:1;                        /*!< bit:     24  Thumb bit        (read 0) */
 254:C:/Users/Lenovo/workspace/dave_workspace/SOLAR_TOWER_XMC/Libraries/CMSIS/Include\core_cm0.h ****     uint32_t _reserved1:3;               /*!< bit: 25..27  Reserved */
 255:C:/Users/Lenovo/workspace/dave_workspace/SOLAR_TOWER_XMC/Libraries/CMSIS/Include\core_cm0.h ****     uint32_t V:1;                        /*!< bit:     28  Overflow condition code flag */
 256:C:/Users/Lenovo/workspace/dave_workspace/SOLAR_TOWER_XMC/Libraries/CMSIS/Include\core_cm0.h ****     uint32_t C:1;                        /*!< bit:     29  Carry condition code flag */
 257:C:/Users/Lenovo/workspace/dave_workspace/SOLAR_TOWER_XMC/Libraries/CMSIS/Include\core_cm0.h ****     uint32_t Z:1;                        /*!< bit:     30  Zero condition code flag */
 258:C:/Users/Lenovo/workspace/dave_workspace/SOLAR_TOWER_XMC/Libraries/CMSIS/Include\core_cm0.h ****     uint32_t N:1;                        /*!< bit:     31  Negative condition code flag */
 259:C:/Users/Lenovo/workspace/dave_workspace/SOLAR_TOWER_XMC/Libraries/CMSIS/Include\core_cm0.h ****   } b;                                   /*!< Structure used for bit  access */
 260:C:/Users/Lenovo/workspace/dave_workspace/SOLAR_TOWER_XMC/Libraries/CMSIS/Include\core_cm0.h ****   uint32_t w;                            /*!< Type      used for word access */
 261:C:/Users/Lenovo/workspace/dave_workspace/SOLAR_TOWER_XMC/Libraries/CMSIS/Include\core_cm0.h **** } xPSR_Type;
 262:C:/Users/Lenovo/workspace/dave_workspace/SOLAR_TOWER_XMC/Libraries/CMSIS/Include\core_cm0.h **** 
 263:C:/Users/Lenovo/workspace/dave_workspace/SOLAR_TOWER_XMC/Libraries/CMSIS/Include\core_cm0.h **** /* xPSR Register Definitions */
 264:C:/Users/Lenovo/workspace/dave_workspace/SOLAR_TOWER_XMC/Libraries/CMSIS/Include\core_cm0.h **** #define xPSR_N_Pos                         31U                                            /*!< xPSR
 265:C:/Users/Lenovo/workspace/dave_workspace/SOLAR_TOWER_XMC/Libraries/CMSIS/Include\core_cm0.h **** #define xPSR_N_Msk                         (1UL << xPSR_N_Pos)                            /*!< xPSR
 266:C:/Users/Lenovo/workspace/dave_workspace/SOLAR_TOWER_XMC/Libraries/CMSIS/Include\core_cm0.h **** 
 267:C:/Users/Lenovo/workspace/dave_workspace/SOLAR_TOWER_XMC/Libraries/CMSIS/Include\core_cm0.h **** #define xPSR_Z_Pos                         30U                                            /*!< xPSR
 268:C:/Users/Lenovo/workspace/dave_workspace/SOLAR_TOWER_XMC/Libraries/CMSIS/Include\core_cm0.h **** #define xPSR_Z_Msk                         (1UL << xPSR_Z_Pos)                            /*!< xPSR
 269:C:/Users/Lenovo/workspace/dave_workspace/SOLAR_TOWER_XMC/Libraries/CMSIS/Include\core_cm0.h **** 
 270:C:/Users/Lenovo/workspace/dave_workspace/SOLAR_TOWER_XMC/Libraries/CMSIS/Include\core_cm0.h **** #define xPSR_C_Pos                         29U                                            /*!< xPSR
 271:C:/Users/Lenovo/workspace/dave_workspace/SOLAR_TOWER_XMC/Libraries/CMSIS/Include\core_cm0.h **** #define xPSR_C_Msk                         (1UL << xPSR_C_Pos)                            /*!< xPSR
 272:C:/Users/Lenovo/workspace/dave_workspace/SOLAR_TOWER_XMC/Libraries/CMSIS/Include\core_cm0.h **** 
 273:C:/Users/Lenovo/workspace/dave_workspace/SOLAR_TOWER_XMC/Libraries/CMSIS/Include\core_cm0.h **** #define xPSR_V_Pos                         28U                                            /*!< xPSR
 274:C:/Users/Lenovo/workspace/dave_workspace/SOLAR_TOWER_XMC/Libraries/CMSIS/Include\core_cm0.h **** #define xPSR_V_Msk                         (1UL << xPSR_V_Pos)                            /*!< xPSR
 275:C:/Users/Lenovo/workspace/dave_workspace/SOLAR_TOWER_XMC/Libraries/CMSIS/Include\core_cm0.h **** 
 276:C:/Users/Lenovo/workspace/dave_workspace/SOLAR_TOWER_XMC/Libraries/CMSIS/Include\core_cm0.h **** #define xPSR_T_Pos                         24U                                            /*!< xPSR
 277:C:/Users/Lenovo/workspace/dave_workspace/SOLAR_TOWER_XMC/Libraries/CMSIS/Include\core_cm0.h **** #define xPSR_T_Msk                         (1UL << xPSR_T_Pos)                            /*!< xPSR
 278:C:/Users/Lenovo/workspace/dave_workspace/SOLAR_TOWER_XMC/Libraries/CMSIS/Include\core_cm0.h **** 
 279:C:/Users/Lenovo/workspace/dave_workspace/SOLAR_TOWER_XMC/Libraries/CMSIS/Include\core_cm0.h **** #define xPSR_ISR_Pos                        0U                                            /*!< xPSR
 280:C:/Users/Lenovo/workspace/dave_workspace/SOLAR_TOWER_XMC/Libraries/CMSIS/Include\core_cm0.h **** #define xPSR_ISR_Msk                       (0x1FFUL /*<< xPSR_ISR_Pos*/)                  /*!< xPSR
 281:C:/Users/Lenovo/workspace/dave_workspace/SOLAR_TOWER_XMC/Libraries/CMSIS/Include\core_cm0.h **** 
 282:C:/Users/Lenovo/workspace/dave_workspace/SOLAR_TOWER_XMC/Libraries/CMSIS/Include\core_cm0.h **** 
 283:C:/Users/Lenovo/workspace/dave_workspace/SOLAR_TOWER_XMC/Libraries/CMSIS/Include\core_cm0.h **** /**
 284:C:/Users/Lenovo/workspace/dave_workspace/SOLAR_TOWER_XMC/Libraries/CMSIS/Include\core_cm0.h ****   \brief  Union type to access the Control Registers (CONTROL).
 285:C:/Users/Lenovo/workspace/dave_workspace/SOLAR_TOWER_XMC/Libraries/CMSIS/Include\core_cm0.h ****  */
 286:C:/Users/Lenovo/workspace/dave_workspace/SOLAR_TOWER_XMC/Libraries/CMSIS/Include\core_cm0.h **** typedef union
 287:C:/Users/Lenovo/workspace/dave_workspace/SOLAR_TOWER_XMC/Libraries/CMSIS/Include\core_cm0.h **** {
 288:C:/Users/Lenovo/workspace/dave_workspace/SOLAR_TOWER_XMC/Libraries/CMSIS/Include\core_cm0.h ****   struct
 289:C:/Users/Lenovo/workspace/dave_workspace/SOLAR_TOWER_XMC/Libraries/CMSIS/Include\core_cm0.h ****   {
 290:C:/Users/Lenovo/workspace/dave_workspace/SOLAR_TOWER_XMC/Libraries/CMSIS/Include\core_cm0.h ****     uint32_t _reserved0:1;               /*!< bit:      0  Reserved */
 291:C:/Users/Lenovo/workspace/dave_workspace/SOLAR_TOWER_XMC/Libraries/CMSIS/Include\core_cm0.h ****     uint32_t SPSEL:1;                    /*!< bit:      1  Stack to be used */
 292:C:/Users/Lenovo/workspace/dave_workspace/SOLAR_TOWER_XMC/Libraries/CMSIS/Include\core_cm0.h ****     uint32_t _reserved1:30;              /*!< bit:  2..31  Reserved */
 293:C:/Users/Lenovo/workspace/dave_workspace/SOLAR_TOWER_XMC/Libraries/CMSIS/Include\core_cm0.h ****   } b;                                   /*!< Structure used for bit  access */
 294:C:/Users/Lenovo/workspace/dave_workspace/SOLAR_TOWER_XMC/Libraries/CMSIS/Include\core_cm0.h ****   uint32_t w;                            /*!< Type      used for word access */
 295:C:/Users/Lenovo/workspace/dave_workspace/SOLAR_TOWER_XMC/Libraries/CMSIS/Include\core_cm0.h **** } CONTROL_Type;
 296:C:/Users/Lenovo/workspace/dave_workspace/SOLAR_TOWER_XMC/Libraries/CMSIS/Include\core_cm0.h **** 
 297:C:/Users/Lenovo/workspace/dave_workspace/SOLAR_TOWER_XMC/Libraries/CMSIS/Include\core_cm0.h **** /* CONTROL Register Definitions */
 298:C:/Users/Lenovo/workspace/dave_workspace/SOLAR_TOWER_XMC/Libraries/CMSIS/Include\core_cm0.h **** #define CONTROL_SPSEL_Pos                   1U                                            /*!< CONT
 299:C:/Users/Lenovo/workspace/dave_workspace/SOLAR_TOWER_XMC/Libraries/CMSIS/Include\core_cm0.h **** #define CONTROL_SPSEL_Msk                  (1UL << CONTROL_SPSEL_Pos)                     /*!< CONT
 300:C:/Users/Lenovo/workspace/dave_workspace/SOLAR_TOWER_XMC/Libraries/CMSIS/Include\core_cm0.h **** 
 301:C:/Users/Lenovo/workspace/dave_workspace/SOLAR_TOWER_XMC/Libraries/CMSIS/Include\core_cm0.h **** /*@} end of group CMSIS_CORE */
 302:C:/Users/Lenovo/workspace/dave_workspace/SOLAR_TOWER_XMC/Libraries/CMSIS/Include\core_cm0.h **** 
 303:C:/Users/Lenovo/workspace/dave_workspace/SOLAR_TOWER_XMC/Libraries/CMSIS/Include\core_cm0.h **** 
 304:C:/Users/Lenovo/workspace/dave_workspace/SOLAR_TOWER_XMC/Libraries/CMSIS/Include\core_cm0.h **** /**
 305:C:/Users/Lenovo/workspace/dave_workspace/SOLAR_TOWER_XMC/Libraries/CMSIS/Include\core_cm0.h ****   \ingroup    CMSIS_core_register
 306:C:/Users/Lenovo/workspace/dave_workspace/SOLAR_TOWER_XMC/Libraries/CMSIS/Include\core_cm0.h ****   \defgroup   CMSIS_NVIC  Nested Vectored Interrupt Controller (NVIC)
 307:C:/Users/Lenovo/workspace/dave_workspace/SOLAR_TOWER_XMC/Libraries/CMSIS/Include\core_cm0.h ****   \brief      Type definitions for the NVIC Registers
 308:C:/Users/Lenovo/workspace/dave_workspace/SOLAR_TOWER_XMC/Libraries/CMSIS/Include\core_cm0.h ****   @{
 309:C:/Users/Lenovo/workspace/dave_workspace/SOLAR_TOWER_XMC/Libraries/CMSIS/Include\core_cm0.h ****  */
 310:C:/Users/Lenovo/workspace/dave_workspace/SOLAR_TOWER_XMC/Libraries/CMSIS/Include\core_cm0.h **** 
 311:C:/Users/Lenovo/workspace/dave_workspace/SOLAR_TOWER_XMC/Libraries/CMSIS/Include\core_cm0.h **** /**
 312:C:/Users/Lenovo/workspace/dave_workspace/SOLAR_TOWER_XMC/Libraries/CMSIS/Include\core_cm0.h ****   \brief  Structure type to access the Nested Vectored Interrupt Controller (NVIC).
 313:C:/Users/Lenovo/workspace/dave_workspace/SOLAR_TOWER_XMC/Libraries/CMSIS/Include\core_cm0.h ****  */
 314:C:/Users/Lenovo/workspace/dave_workspace/SOLAR_TOWER_XMC/Libraries/CMSIS/Include\core_cm0.h **** typedef struct
 315:C:/Users/Lenovo/workspace/dave_workspace/SOLAR_TOWER_XMC/Libraries/CMSIS/Include\core_cm0.h **** {
 316:C:/Users/Lenovo/workspace/dave_workspace/SOLAR_TOWER_XMC/Libraries/CMSIS/Include\core_cm0.h ****   __IOM uint32_t ISER[1U];               /*!< Offset: 0x000 (R/W)  Interrupt Set Enable Register */
 317:C:/Users/Lenovo/workspace/dave_workspace/SOLAR_TOWER_XMC/Libraries/CMSIS/Include\core_cm0.h ****         uint32_t RESERVED0[31U];
 318:C:/Users/Lenovo/workspace/dave_workspace/SOLAR_TOWER_XMC/Libraries/CMSIS/Include\core_cm0.h ****   __IOM uint32_t ICER[1U];               /*!< Offset: 0x080 (R/W)  Interrupt Clear Enable Register 
 319:C:/Users/Lenovo/workspace/dave_workspace/SOLAR_TOWER_XMC/Libraries/CMSIS/Include\core_cm0.h ****         uint32_t RESERVED1[31U];
 320:C:/Users/Lenovo/workspace/dave_workspace/SOLAR_TOWER_XMC/Libraries/CMSIS/Include\core_cm0.h ****   __IOM uint32_t ISPR[1U];               /*!< Offset: 0x100 (R/W)  Interrupt Set Pending Register *
 321:C:/Users/Lenovo/workspace/dave_workspace/SOLAR_TOWER_XMC/Libraries/CMSIS/Include\core_cm0.h ****         uint32_t RESERVED2[31U];
 322:C:/Users/Lenovo/workspace/dave_workspace/SOLAR_TOWER_XMC/Libraries/CMSIS/Include\core_cm0.h ****   __IOM uint32_t ICPR[1U];               /*!< Offset: 0x180 (R/W)  Interrupt Clear Pending Register
 323:C:/Users/Lenovo/workspace/dave_workspace/SOLAR_TOWER_XMC/Libraries/CMSIS/Include\core_cm0.h ****         uint32_t RESERVED3[31U];
 324:C:/Users/Lenovo/workspace/dave_workspace/SOLAR_TOWER_XMC/Libraries/CMSIS/Include\core_cm0.h ****         uint32_t RESERVED4[64U];
 325:C:/Users/Lenovo/workspace/dave_workspace/SOLAR_TOWER_XMC/Libraries/CMSIS/Include\core_cm0.h ****   __IOM uint32_t IP[8U];                 /*!< Offset: 0x300 (R/W)  Interrupt Priority Register */
 326:C:/Users/Lenovo/workspace/dave_workspace/SOLAR_TOWER_XMC/Libraries/CMSIS/Include\core_cm0.h **** }  NVIC_Type;
 327:C:/Users/Lenovo/workspace/dave_workspace/SOLAR_TOWER_XMC/Libraries/CMSIS/Include\core_cm0.h **** 
 328:C:/Users/Lenovo/workspace/dave_workspace/SOLAR_TOWER_XMC/Libraries/CMSIS/Include\core_cm0.h **** /*@} end of group CMSIS_NVIC */
 329:C:/Users/Lenovo/workspace/dave_workspace/SOLAR_TOWER_XMC/Libraries/CMSIS/Include\core_cm0.h **** 
 330:C:/Users/Lenovo/workspace/dave_workspace/SOLAR_TOWER_XMC/Libraries/CMSIS/Include\core_cm0.h **** 
 331:C:/Users/Lenovo/workspace/dave_workspace/SOLAR_TOWER_XMC/Libraries/CMSIS/Include\core_cm0.h **** /**
 332:C:/Users/Lenovo/workspace/dave_workspace/SOLAR_TOWER_XMC/Libraries/CMSIS/Include\core_cm0.h ****   \ingroup  CMSIS_core_register
 333:C:/Users/Lenovo/workspace/dave_workspace/SOLAR_TOWER_XMC/Libraries/CMSIS/Include\core_cm0.h ****   \defgroup CMSIS_SCB     System Control Block (SCB)
 334:C:/Users/Lenovo/workspace/dave_workspace/SOLAR_TOWER_XMC/Libraries/CMSIS/Include\core_cm0.h ****   \brief    Type definitions for the System Control Block Registers
 335:C:/Users/Lenovo/workspace/dave_workspace/SOLAR_TOWER_XMC/Libraries/CMSIS/Include\core_cm0.h ****   @{
 336:C:/Users/Lenovo/workspace/dave_workspace/SOLAR_TOWER_XMC/Libraries/CMSIS/Include\core_cm0.h ****  */
 337:C:/Users/Lenovo/workspace/dave_workspace/SOLAR_TOWER_XMC/Libraries/CMSIS/Include\core_cm0.h **** 
 338:C:/Users/Lenovo/workspace/dave_workspace/SOLAR_TOWER_XMC/Libraries/CMSIS/Include\core_cm0.h **** /**
 339:C:/Users/Lenovo/workspace/dave_workspace/SOLAR_TOWER_XMC/Libraries/CMSIS/Include\core_cm0.h ****   \brief  Structure type to access the System Control Block (SCB).
 340:C:/Users/Lenovo/workspace/dave_workspace/SOLAR_TOWER_XMC/Libraries/CMSIS/Include\core_cm0.h ****  */
 341:C:/Users/Lenovo/workspace/dave_workspace/SOLAR_TOWER_XMC/Libraries/CMSIS/Include\core_cm0.h **** typedef struct
 342:C:/Users/Lenovo/workspace/dave_workspace/SOLAR_TOWER_XMC/Libraries/CMSIS/Include\core_cm0.h **** {
 343:C:/Users/Lenovo/workspace/dave_workspace/SOLAR_TOWER_XMC/Libraries/CMSIS/Include\core_cm0.h ****   __IM  uint32_t CPUID;                  /*!< Offset: 0x000 (R/ )  CPUID Base Register */
 344:C:/Users/Lenovo/workspace/dave_workspace/SOLAR_TOWER_XMC/Libraries/CMSIS/Include\core_cm0.h ****   __IOM uint32_t ICSR;                   /*!< Offset: 0x004 (R/W)  Interrupt Control and State Regi
 345:C:/Users/Lenovo/workspace/dave_workspace/SOLAR_TOWER_XMC/Libraries/CMSIS/Include\core_cm0.h ****         uint32_t RESERVED0;
 346:C:/Users/Lenovo/workspace/dave_workspace/SOLAR_TOWER_XMC/Libraries/CMSIS/Include\core_cm0.h ****   __IOM uint32_t AIRCR;                  /*!< Offset: 0x00C (R/W)  Application Interrupt and Reset 
 347:C:/Users/Lenovo/workspace/dave_workspace/SOLAR_TOWER_XMC/Libraries/CMSIS/Include\core_cm0.h ****   __IOM uint32_t SCR;                    /*!< Offset: 0x010 (R/W)  System Control Register */
 348:C:/Users/Lenovo/workspace/dave_workspace/SOLAR_TOWER_XMC/Libraries/CMSIS/Include\core_cm0.h ****   __IOM uint32_t CCR;                    /*!< Offset: 0x014 (R/W)  Configuration Control Register *
 349:C:/Users/Lenovo/workspace/dave_workspace/SOLAR_TOWER_XMC/Libraries/CMSIS/Include\core_cm0.h ****         uint32_t RESERVED1;
 350:C:/Users/Lenovo/workspace/dave_workspace/SOLAR_TOWER_XMC/Libraries/CMSIS/Include\core_cm0.h ****   __IOM uint32_t SHP[2U];                /*!< Offset: 0x01C (R/W)  System Handlers Priority Registe
 351:C:/Users/Lenovo/workspace/dave_workspace/SOLAR_TOWER_XMC/Libraries/CMSIS/Include\core_cm0.h ****   __IOM uint32_t SHCSR;                  /*!< Offset: 0x024 (R/W)  System Handler Control and State
 352:C:/Users/Lenovo/workspace/dave_workspace/SOLAR_TOWER_XMC/Libraries/CMSIS/Include\core_cm0.h **** } SCB_Type;
 353:C:/Users/Lenovo/workspace/dave_workspace/SOLAR_TOWER_XMC/Libraries/CMSIS/Include\core_cm0.h **** 
 354:C:/Users/Lenovo/workspace/dave_workspace/SOLAR_TOWER_XMC/Libraries/CMSIS/Include\core_cm0.h **** /* SCB CPUID Register Definitions */
 355:C:/Users/Lenovo/workspace/dave_workspace/SOLAR_TOWER_XMC/Libraries/CMSIS/Include\core_cm0.h **** #define SCB_CPUID_IMPLEMENTER_Pos          24U                                            /*!< SCB 
 356:C:/Users/Lenovo/workspace/dave_workspace/SOLAR_TOWER_XMC/Libraries/CMSIS/Include\core_cm0.h **** #define SCB_CPUID_IMPLEMENTER_Msk          (0xFFUL << SCB_CPUID_IMPLEMENTER_Pos)          /*!< SCB 
 357:C:/Users/Lenovo/workspace/dave_workspace/SOLAR_TOWER_XMC/Libraries/CMSIS/Include\core_cm0.h **** 
 358:C:/Users/Lenovo/workspace/dave_workspace/SOLAR_TOWER_XMC/Libraries/CMSIS/Include\core_cm0.h **** #define SCB_CPUID_VARIANT_Pos              20U                                            /*!< SCB 
 359:C:/Users/Lenovo/workspace/dave_workspace/SOLAR_TOWER_XMC/Libraries/CMSIS/Include\core_cm0.h **** #define SCB_CPUID_VARIANT_Msk              (0xFUL << SCB_CPUID_VARIANT_Pos)               /*!< SCB 
 360:C:/Users/Lenovo/workspace/dave_workspace/SOLAR_TOWER_XMC/Libraries/CMSIS/Include\core_cm0.h **** 
 361:C:/Users/Lenovo/workspace/dave_workspace/SOLAR_TOWER_XMC/Libraries/CMSIS/Include\core_cm0.h **** #define SCB_CPUID_ARCHITECTURE_Pos         16U                                            /*!< SCB 
 362:C:/Users/Lenovo/workspace/dave_workspace/SOLAR_TOWER_XMC/Libraries/CMSIS/Include\core_cm0.h **** #define SCB_CPUID_ARCHITECTURE_Msk         (0xFUL << SCB_CPUID_ARCHITECTURE_Pos)          /*!< SCB 
 363:C:/Users/Lenovo/workspace/dave_workspace/SOLAR_TOWER_XMC/Libraries/CMSIS/Include\core_cm0.h **** 
 364:C:/Users/Lenovo/workspace/dave_workspace/SOLAR_TOWER_XMC/Libraries/CMSIS/Include\core_cm0.h **** #define SCB_CPUID_PARTNO_Pos                4U                                            /*!< SCB 
 365:C:/Users/Lenovo/workspace/dave_workspace/SOLAR_TOWER_XMC/Libraries/CMSIS/Include\core_cm0.h **** #define SCB_CPUID_PARTNO_Msk               (0xFFFUL << SCB_CPUID_PARTNO_Pos)              /*!< SCB 
 366:C:/Users/Lenovo/workspace/dave_workspace/SOLAR_TOWER_XMC/Libraries/CMSIS/Include\core_cm0.h **** 
 367:C:/Users/Lenovo/workspace/dave_workspace/SOLAR_TOWER_XMC/Libraries/CMSIS/Include\core_cm0.h **** #define SCB_CPUID_REVISION_Pos              0U                                            /*!< SCB 
 368:C:/Users/Lenovo/workspace/dave_workspace/SOLAR_TOWER_XMC/Libraries/CMSIS/Include\core_cm0.h **** #define SCB_CPUID_REVISION_Msk             (0xFUL /*<< SCB_CPUID_REVISION_Pos*/)          /*!< SCB 
 369:C:/Users/Lenovo/workspace/dave_workspace/SOLAR_TOWER_XMC/Libraries/CMSIS/Include\core_cm0.h **** 
 370:C:/Users/Lenovo/workspace/dave_workspace/SOLAR_TOWER_XMC/Libraries/CMSIS/Include\core_cm0.h **** /* SCB Interrupt Control State Register Definitions */
 371:C:/Users/Lenovo/workspace/dave_workspace/SOLAR_TOWER_XMC/Libraries/CMSIS/Include\core_cm0.h **** #define SCB_ICSR_NMIPENDSET_Pos            31U                                            /*!< SCB 
 372:C:/Users/Lenovo/workspace/dave_workspace/SOLAR_TOWER_XMC/Libraries/CMSIS/Include\core_cm0.h **** #define SCB_ICSR_NMIPENDSET_Msk            (1UL << SCB_ICSR_NMIPENDSET_Pos)               /*!< SCB 
 373:C:/Users/Lenovo/workspace/dave_workspace/SOLAR_TOWER_XMC/Libraries/CMSIS/Include\core_cm0.h **** 
 374:C:/Users/Lenovo/workspace/dave_workspace/SOLAR_TOWER_XMC/Libraries/CMSIS/Include\core_cm0.h **** #define SCB_ICSR_PENDSVSET_Pos             28U                                            /*!< SCB 
 375:C:/Users/Lenovo/workspace/dave_workspace/SOLAR_TOWER_XMC/Libraries/CMSIS/Include\core_cm0.h **** #define SCB_ICSR_PENDSVSET_Msk             (1UL << SCB_ICSR_PENDSVSET_Pos)                /*!< SCB 
 376:C:/Users/Lenovo/workspace/dave_workspace/SOLAR_TOWER_XMC/Libraries/CMSIS/Include\core_cm0.h **** 
 377:C:/Users/Lenovo/workspace/dave_workspace/SOLAR_TOWER_XMC/Libraries/CMSIS/Include\core_cm0.h **** #define SCB_ICSR_PENDSVCLR_Pos             27U                                            /*!< SCB 
 378:C:/Users/Lenovo/workspace/dave_workspace/SOLAR_TOWER_XMC/Libraries/CMSIS/Include\core_cm0.h **** #define SCB_ICSR_PENDSVCLR_Msk             (1UL << SCB_ICSR_PENDSVCLR_Pos)                /*!< SCB 
 379:C:/Users/Lenovo/workspace/dave_workspace/SOLAR_TOWER_XMC/Libraries/CMSIS/Include\core_cm0.h **** 
 380:C:/Users/Lenovo/workspace/dave_workspace/SOLAR_TOWER_XMC/Libraries/CMSIS/Include\core_cm0.h **** #define SCB_ICSR_PENDSTSET_Pos             26U                                            /*!< SCB 
 381:C:/Users/Lenovo/workspace/dave_workspace/SOLAR_TOWER_XMC/Libraries/CMSIS/Include\core_cm0.h **** #define SCB_ICSR_PENDSTSET_Msk             (1UL << SCB_ICSR_PENDSTSET_Pos)                /*!< SCB 
 382:C:/Users/Lenovo/workspace/dave_workspace/SOLAR_TOWER_XMC/Libraries/CMSIS/Include\core_cm0.h **** 
 383:C:/Users/Lenovo/workspace/dave_workspace/SOLAR_TOWER_XMC/Libraries/CMSIS/Include\core_cm0.h **** #define SCB_ICSR_PENDSTCLR_Pos             25U                                            /*!< SCB 
 384:C:/Users/Lenovo/workspace/dave_workspace/SOLAR_TOWER_XMC/Libraries/CMSIS/Include\core_cm0.h **** #define SCB_ICSR_PENDSTCLR_Msk             (1UL << SCB_ICSR_PENDSTCLR_Pos)                /*!< SCB 
 385:C:/Users/Lenovo/workspace/dave_workspace/SOLAR_TOWER_XMC/Libraries/CMSIS/Include\core_cm0.h **** 
 386:C:/Users/Lenovo/workspace/dave_workspace/SOLAR_TOWER_XMC/Libraries/CMSIS/Include\core_cm0.h **** #define SCB_ICSR_ISRPREEMPT_Pos            23U                                            /*!< SCB 
 387:C:/Users/Lenovo/workspace/dave_workspace/SOLAR_TOWER_XMC/Libraries/CMSIS/Include\core_cm0.h **** #define SCB_ICSR_ISRPREEMPT_Msk            (1UL << SCB_ICSR_ISRPREEMPT_Pos)               /*!< SCB 
 388:C:/Users/Lenovo/workspace/dave_workspace/SOLAR_TOWER_XMC/Libraries/CMSIS/Include\core_cm0.h **** 
 389:C:/Users/Lenovo/workspace/dave_workspace/SOLAR_TOWER_XMC/Libraries/CMSIS/Include\core_cm0.h **** #define SCB_ICSR_ISRPENDING_Pos            22U                                            /*!< SCB 
 390:C:/Users/Lenovo/workspace/dave_workspace/SOLAR_TOWER_XMC/Libraries/CMSIS/Include\core_cm0.h **** #define SCB_ICSR_ISRPENDING_Msk            (1UL << SCB_ICSR_ISRPENDING_Pos)               /*!< SCB 
 391:C:/Users/Lenovo/workspace/dave_workspace/SOLAR_TOWER_XMC/Libraries/CMSIS/Include\core_cm0.h **** 
 392:C:/Users/Lenovo/workspace/dave_workspace/SOLAR_TOWER_XMC/Libraries/CMSIS/Include\core_cm0.h **** #define SCB_ICSR_VECTPENDING_Pos           12U                                            /*!< SCB 
 393:C:/Users/Lenovo/workspace/dave_workspace/SOLAR_TOWER_XMC/Libraries/CMSIS/Include\core_cm0.h **** #define SCB_ICSR_VECTPENDING_Msk           (0x1FFUL << SCB_ICSR_VECTPENDING_Pos)          /*!< SCB 
 394:C:/Users/Lenovo/workspace/dave_workspace/SOLAR_TOWER_XMC/Libraries/CMSIS/Include\core_cm0.h **** 
 395:C:/Users/Lenovo/workspace/dave_workspace/SOLAR_TOWER_XMC/Libraries/CMSIS/Include\core_cm0.h **** #define SCB_ICSR_VECTACTIVE_Pos             0U                                            /*!< SCB 
 396:C:/Users/Lenovo/workspace/dave_workspace/SOLAR_TOWER_XMC/Libraries/CMSIS/Include\core_cm0.h **** #define SCB_ICSR_VECTACTIVE_Msk            (0x1FFUL /*<< SCB_ICSR_VECTACTIVE_Pos*/)       /*!< SCB 
 397:C:/Users/Lenovo/workspace/dave_workspace/SOLAR_TOWER_XMC/Libraries/CMSIS/Include\core_cm0.h **** 
 398:C:/Users/Lenovo/workspace/dave_workspace/SOLAR_TOWER_XMC/Libraries/CMSIS/Include\core_cm0.h **** /* SCB Application Interrupt and Reset Control Register Definitions */
 399:C:/Users/Lenovo/workspace/dave_workspace/SOLAR_TOWER_XMC/Libraries/CMSIS/Include\core_cm0.h **** #define SCB_AIRCR_VECTKEY_Pos              16U                                            /*!< SCB 
 400:C:/Users/Lenovo/workspace/dave_workspace/SOLAR_TOWER_XMC/Libraries/CMSIS/Include\core_cm0.h **** #define SCB_AIRCR_VECTKEY_Msk              (0xFFFFUL << SCB_AIRCR_VECTKEY_Pos)            /*!< SCB 
 401:C:/Users/Lenovo/workspace/dave_workspace/SOLAR_TOWER_XMC/Libraries/CMSIS/Include\core_cm0.h **** 
 402:C:/Users/Lenovo/workspace/dave_workspace/SOLAR_TOWER_XMC/Libraries/CMSIS/Include\core_cm0.h **** #define SCB_AIRCR_VECTKEYSTAT_Pos          16U                                            /*!< SCB 
 403:C:/Users/Lenovo/workspace/dave_workspace/SOLAR_TOWER_XMC/Libraries/CMSIS/Include\core_cm0.h **** #define SCB_AIRCR_VECTKEYSTAT_Msk          (0xFFFFUL << SCB_AIRCR_VECTKEYSTAT_Pos)        /*!< SCB 
 404:C:/Users/Lenovo/workspace/dave_workspace/SOLAR_TOWER_XMC/Libraries/CMSIS/Include\core_cm0.h **** 
 405:C:/Users/Lenovo/workspace/dave_workspace/SOLAR_TOWER_XMC/Libraries/CMSIS/Include\core_cm0.h **** #define SCB_AIRCR_ENDIANESS_Pos            15U                                            /*!< SCB 
 406:C:/Users/Lenovo/workspace/dave_workspace/SOLAR_TOWER_XMC/Libraries/CMSIS/Include\core_cm0.h **** #define SCB_AIRCR_ENDIANESS_Msk            (1UL << SCB_AIRCR_ENDIANESS_Pos)               /*!< SCB 
 407:C:/Users/Lenovo/workspace/dave_workspace/SOLAR_TOWER_XMC/Libraries/CMSIS/Include\core_cm0.h **** 
 408:C:/Users/Lenovo/workspace/dave_workspace/SOLAR_TOWER_XMC/Libraries/CMSIS/Include\core_cm0.h **** #define SCB_AIRCR_SYSRESETREQ_Pos           2U                                            /*!< SCB 
 409:C:/Users/Lenovo/workspace/dave_workspace/SOLAR_TOWER_XMC/Libraries/CMSIS/Include\core_cm0.h **** #define SCB_AIRCR_SYSRESETREQ_Msk          (1UL << SCB_AIRCR_SYSRESETREQ_Pos)             /*!< SCB 
 410:C:/Users/Lenovo/workspace/dave_workspace/SOLAR_TOWER_XMC/Libraries/CMSIS/Include\core_cm0.h **** 
 411:C:/Users/Lenovo/workspace/dave_workspace/SOLAR_TOWER_XMC/Libraries/CMSIS/Include\core_cm0.h **** #define SCB_AIRCR_VECTCLRACTIVE_Pos         1U                                            /*!< SCB 
 412:C:/Users/Lenovo/workspace/dave_workspace/SOLAR_TOWER_XMC/Libraries/CMSIS/Include\core_cm0.h **** #define SCB_AIRCR_VECTCLRACTIVE_Msk        (1UL << SCB_AIRCR_VECTCLRACTIVE_Pos)           /*!< SCB 
 413:C:/Users/Lenovo/workspace/dave_workspace/SOLAR_TOWER_XMC/Libraries/CMSIS/Include\core_cm0.h **** 
 414:C:/Users/Lenovo/workspace/dave_workspace/SOLAR_TOWER_XMC/Libraries/CMSIS/Include\core_cm0.h **** /* SCB System Control Register Definitions */
 415:C:/Users/Lenovo/workspace/dave_workspace/SOLAR_TOWER_XMC/Libraries/CMSIS/Include\core_cm0.h **** #define SCB_SCR_SEVONPEND_Pos               4U                                            /*!< SCB 
 416:C:/Users/Lenovo/workspace/dave_workspace/SOLAR_TOWER_XMC/Libraries/CMSIS/Include\core_cm0.h **** #define SCB_SCR_SEVONPEND_Msk              (1UL << SCB_SCR_SEVONPEND_Pos)                 /*!< SCB 
 417:C:/Users/Lenovo/workspace/dave_workspace/SOLAR_TOWER_XMC/Libraries/CMSIS/Include\core_cm0.h **** 
 418:C:/Users/Lenovo/workspace/dave_workspace/SOLAR_TOWER_XMC/Libraries/CMSIS/Include\core_cm0.h **** #define SCB_SCR_SLEEPDEEP_Pos               2U                                            /*!< SCB 
 419:C:/Users/Lenovo/workspace/dave_workspace/SOLAR_TOWER_XMC/Libraries/CMSIS/Include\core_cm0.h **** #define SCB_SCR_SLEEPDEEP_Msk              (1UL << SCB_SCR_SLEEPDEEP_Pos)                 /*!< SCB 
 420:C:/Users/Lenovo/workspace/dave_workspace/SOLAR_TOWER_XMC/Libraries/CMSIS/Include\core_cm0.h **** 
 421:C:/Users/Lenovo/workspace/dave_workspace/SOLAR_TOWER_XMC/Libraries/CMSIS/Include\core_cm0.h **** #define SCB_SCR_SLEEPONEXIT_Pos             1U                                            /*!< SCB 
 422:C:/Users/Lenovo/workspace/dave_workspace/SOLAR_TOWER_XMC/Libraries/CMSIS/Include\core_cm0.h **** #define SCB_SCR_SLEEPONEXIT_Msk            (1UL << SCB_SCR_SLEEPONEXIT_Pos)               /*!< SCB 
 423:C:/Users/Lenovo/workspace/dave_workspace/SOLAR_TOWER_XMC/Libraries/CMSIS/Include\core_cm0.h **** 
 424:C:/Users/Lenovo/workspace/dave_workspace/SOLAR_TOWER_XMC/Libraries/CMSIS/Include\core_cm0.h **** /* SCB Configuration Control Register Definitions */
 425:C:/Users/Lenovo/workspace/dave_workspace/SOLAR_TOWER_XMC/Libraries/CMSIS/Include\core_cm0.h **** #define SCB_CCR_STKALIGN_Pos                9U                                            /*!< SCB 
 426:C:/Users/Lenovo/workspace/dave_workspace/SOLAR_TOWER_XMC/Libraries/CMSIS/Include\core_cm0.h **** #define SCB_CCR_STKALIGN_Msk               (1UL << SCB_CCR_STKALIGN_Pos)                  /*!< SCB 
 427:C:/Users/Lenovo/workspace/dave_workspace/SOLAR_TOWER_XMC/Libraries/CMSIS/Include\core_cm0.h **** 
 428:C:/Users/Lenovo/workspace/dave_workspace/SOLAR_TOWER_XMC/Libraries/CMSIS/Include\core_cm0.h **** #define SCB_CCR_UNALIGN_TRP_Pos             3U                                            /*!< SCB 
 429:C:/Users/Lenovo/workspace/dave_workspace/SOLAR_TOWER_XMC/Libraries/CMSIS/Include\core_cm0.h **** #define SCB_CCR_UNALIGN_TRP_Msk            (1UL << SCB_CCR_UNALIGN_TRP_Pos)               /*!< SCB 
 430:C:/Users/Lenovo/workspace/dave_workspace/SOLAR_TOWER_XMC/Libraries/CMSIS/Include\core_cm0.h **** 
 431:C:/Users/Lenovo/workspace/dave_workspace/SOLAR_TOWER_XMC/Libraries/CMSIS/Include\core_cm0.h **** /* SCB System Handler Control and State Register Definitions */
 432:C:/Users/Lenovo/workspace/dave_workspace/SOLAR_TOWER_XMC/Libraries/CMSIS/Include\core_cm0.h **** #define SCB_SHCSR_SVCALLPENDED_Pos         15U                                            /*!< SCB 
 433:C:/Users/Lenovo/workspace/dave_workspace/SOLAR_TOWER_XMC/Libraries/CMSIS/Include\core_cm0.h **** #define SCB_SHCSR_SVCALLPENDED_Msk         (1UL << SCB_SHCSR_SVCALLPENDED_Pos)            /*!< SCB 
 434:C:/Users/Lenovo/workspace/dave_workspace/SOLAR_TOWER_XMC/Libraries/CMSIS/Include\core_cm0.h **** 
 435:C:/Users/Lenovo/workspace/dave_workspace/SOLAR_TOWER_XMC/Libraries/CMSIS/Include\core_cm0.h **** /*@} end of group CMSIS_SCB */
 436:C:/Users/Lenovo/workspace/dave_workspace/SOLAR_TOWER_XMC/Libraries/CMSIS/Include\core_cm0.h **** 
 437:C:/Users/Lenovo/workspace/dave_workspace/SOLAR_TOWER_XMC/Libraries/CMSIS/Include\core_cm0.h **** 
 438:C:/Users/Lenovo/workspace/dave_workspace/SOLAR_TOWER_XMC/Libraries/CMSIS/Include\core_cm0.h **** /**
 439:C:/Users/Lenovo/workspace/dave_workspace/SOLAR_TOWER_XMC/Libraries/CMSIS/Include\core_cm0.h ****   \ingroup  CMSIS_core_register
 440:C:/Users/Lenovo/workspace/dave_workspace/SOLAR_TOWER_XMC/Libraries/CMSIS/Include\core_cm0.h ****   \defgroup CMSIS_SysTick     System Tick Timer (SysTick)
 441:C:/Users/Lenovo/workspace/dave_workspace/SOLAR_TOWER_XMC/Libraries/CMSIS/Include\core_cm0.h ****   \brief    Type definitions for the System Timer Registers.
 442:C:/Users/Lenovo/workspace/dave_workspace/SOLAR_TOWER_XMC/Libraries/CMSIS/Include\core_cm0.h ****   @{
 443:C:/Users/Lenovo/workspace/dave_workspace/SOLAR_TOWER_XMC/Libraries/CMSIS/Include\core_cm0.h ****  */
 444:C:/Users/Lenovo/workspace/dave_workspace/SOLAR_TOWER_XMC/Libraries/CMSIS/Include\core_cm0.h **** 
 445:C:/Users/Lenovo/workspace/dave_workspace/SOLAR_TOWER_XMC/Libraries/CMSIS/Include\core_cm0.h **** /**
 446:C:/Users/Lenovo/workspace/dave_workspace/SOLAR_TOWER_XMC/Libraries/CMSIS/Include\core_cm0.h ****   \brief  Structure type to access the System Timer (SysTick).
 447:C:/Users/Lenovo/workspace/dave_workspace/SOLAR_TOWER_XMC/Libraries/CMSIS/Include\core_cm0.h ****  */
 448:C:/Users/Lenovo/workspace/dave_workspace/SOLAR_TOWER_XMC/Libraries/CMSIS/Include\core_cm0.h **** typedef struct
 449:C:/Users/Lenovo/workspace/dave_workspace/SOLAR_TOWER_XMC/Libraries/CMSIS/Include\core_cm0.h **** {
 450:C:/Users/Lenovo/workspace/dave_workspace/SOLAR_TOWER_XMC/Libraries/CMSIS/Include\core_cm0.h ****   __IOM uint32_t CTRL;                   /*!< Offset: 0x000 (R/W)  SysTick Control and Status Regis
 451:C:/Users/Lenovo/workspace/dave_workspace/SOLAR_TOWER_XMC/Libraries/CMSIS/Include\core_cm0.h ****   __IOM uint32_t LOAD;                   /*!< Offset: 0x004 (R/W)  SysTick Reload Value Register */
 452:C:/Users/Lenovo/workspace/dave_workspace/SOLAR_TOWER_XMC/Libraries/CMSIS/Include\core_cm0.h ****   __IOM uint32_t VAL;                    /*!< Offset: 0x008 (R/W)  SysTick Current Value Register *
 453:C:/Users/Lenovo/workspace/dave_workspace/SOLAR_TOWER_XMC/Libraries/CMSIS/Include\core_cm0.h ****   __IM  uint32_t CALIB;                  /*!< Offset: 0x00C (R/ )  SysTick Calibration Register */
 454:C:/Users/Lenovo/workspace/dave_workspace/SOLAR_TOWER_XMC/Libraries/CMSIS/Include\core_cm0.h **** } SysTick_Type;
 455:C:/Users/Lenovo/workspace/dave_workspace/SOLAR_TOWER_XMC/Libraries/CMSIS/Include\core_cm0.h **** 
 456:C:/Users/Lenovo/workspace/dave_workspace/SOLAR_TOWER_XMC/Libraries/CMSIS/Include\core_cm0.h **** /* SysTick Control / Status Register Definitions */
 457:C:/Users/Lenovo/workspace/dave_workspace/SOLAR_TOWER_XMC/Libraries/CMSIS/Include\core_cm0.h **** #define SysTick_CTRL_COUNTFLAG_Pos         16U                                            /*!< SysT
 458:C:/Users/Lenovo/workspace/dave_workspace/SOLAR_TOWER_XMC/Libraries/CMSIS/Include\core_cm0.h **** #define SysTick_CTRL_COUNTFLAG_Msk         (1UL << SysTick_CTRL_COUNTFLAG_Pos)            /*!< SysT
 459:C:/Users/Lenovo/workspace/dave_workspace/SOLAR_TOWER_XMC/Libraries/CMSIS/Include\core_cm0.h **** 
 460:C:/Users/Lenovo/workspace/dave_workspace/SOLAR_TOWER_XMC/Libraries/CMSIS/Include\core_cm0.h **** #define SysTick_CTRL_CLKSOURCE_Pos          2U                                            /*!< SysT
 461:C:/Users/Lenovo/workspace/dave_workspace/SOLAR_TOWER_XMC/Libraries/CMSIS/Include\core_cm0.h **** #define SysTick_CTRL_CLKSOURCE_Msk         (1UL << SysTick_CTRL_CLKSOURCE_Pos)            /*!< SysT
 462:C:/Users/Lenovo/workspace/dave_workspace/SOLAR_TOWER_XMC/Libraries/CMSIS/Include\core_cm0.h **** 
 463:C:/Users/Lenovo/workspace/dave_workspace/SOLAR_TOWER_XMC/Libraries/CMSIS/Include\core_cm0.h **** #define SysTick_CTRL_TICKINT_Pos            1U                                            /*!< SysT
 464:C:/Users/Lenovo/workspace/dave_workspace/SOLAR_TOWER_XMC/Libraries/CMSIS/Include\core_cm0.h **** #define SysTick_CTRL_TICKINT_Msk           (1UL << SysTick_CTRL_TICKINT_Pos)              /*!< SysT
 465:C:/Users/Lenovo/workspace/dave_workspace/SOLAR_TOWER_XMC/Libraries/CMSIS/Include\core_cm0.h **** 
 466:C:/Users/Lenovo/workspace/dave_workspace/SOLAR_TOWER_XMC/Libraries/CMSIS/Include\core_cm0.h **** #define SysTick_CTRL_ENABLE_Pos             0U                                            /*!< SysT
 467:C:/Users/Lenovo/workspace/dave_workspace/SOLAR_TOWER_XMC/Libraries/CMSIS/Include\core_cm0.h **** #define SysTick_CTRL_ENABLE_Msk            (1UL /*<< SysTick_CTRL_ENABLE_Pos*/)           /*!< SysT
 468:C:/Users/Lenovo/workspace/dave_workspace/SOLAR_TOWER_XMC/Libraries/CMSIS/Include\core_cm0.h **** 
 469:C:/Users/Lenovo/workspace/dave_workspace/SOLAR_TOWER_XMC/Libraries/CMSIS/Include\core_cm0.h **** /* SysTick Reload Register Definitions */
 470:C:/Users/Lenovo/workspace/dave_workspace/SOLAR_TOWER_XMC/Libraries/CMSIS/Include\core_cm0.h **** #define SysTick_LOAD_RELOAD_Pos             0U                                            /*!< SysT
 471:C:/Users/Lenovo/workspace/dave_workspace/SOLAR_TOWER_XMC/Libraries/CMSIS/Include\core_cm0.h **** #define SysTick_LOAD_RELOAD_Msk            (0xFFFFFFUL /*<< SysTick_LOAD_RELOAD_Pos*/)    /*!< SysT
 472:C:/Users/Lenovo/workspace/dave_workspace/SOLAR_TOWER_XMC/Libraries/CMSIS/Include\core_cm0.h **** 
 473:C:/Users/Lenovo/workspace/dave_workspace/SOLAR_TOWER_XMC/Libraries/CMSIS/Include\core_cm0.h **** /* SysTick Current Register Definitions */
 474:C:/Users/Lenovo/workspace/dave_workspace/SOLAR_TOWER_XMC/Libraries/CMSIS/Include\core_cm0.h **** #define SysTick_VAL_CURRENT_Pos             0U                                            /*!< SysT
 475:C:/Users/Lenovo/workspace/dave_workspace/SOLAR_TOWER_XMC/Libraries/CMSIS/Include\core_cm0.h **** #define SysTick_VAL_CURRENT_Msk            (0xFFFFFFUL /*<< SysTick_VAL_CURRENT_Pos*/)    /*!< SysT
 476:C:/Users/Lenovo/workspace/dave_workspace/SOLAR_TOWER_XMC/Libraries/CMSIS/Include\core_cm0.h **** 
 477:C:/Users/Lenovo/workspace/dave_workspace/SOLAR_TOWER_XMC/Libraries/CMSIS/Include\core_cm0.h **** /* SysTick Calibration Register Definitions */
 478:C:/Users/Lenovo/workspace/dave_workspace/SOLAR_TOWER_XMC/Libraries/CMSIS/Include\core_cm0.h **** #define SysTick_CALIB_NOREF_Pos            31U                                            /*!< SysT
 479:C:/Users/Lenovo/workspace/dave_workspace/SOLAR_TOWER_XMC/Libraries/CMSIS/Include\core_cm0.h **** #define SysTick_CALIB_NOREF_Msk            (1UL << SysTick_CALIB_NOREF_Pos)               /*!< SysT
 480:C:/Users/Lenovo/workspace/dave_workspace/SOLAR_TOWER_XMC/Libraries/CMSIS/Include\core_cm0.h **** 
 481:C:/Users/Lenovo/workspace/dave_workspace/SOLAR_TOWER_XMC/Libraries/CMSIS/Include\core_cm0.h **** #define SysTick_CALIB_SKEW_Pos             30U                                            /*!< SysT
 482:C:/Users/Lenovo/workspace/dave_workspace/SOLAR_TOWER_XMC/Libraries/CMSIS/Include\core_cm0.h **** #define SysTick_CALIB_SKEW_Msk             (1UL << SysTick_CALIB_SKEW_Pos)                /*!< SysT
 483:C:/Users/Lenovo/workspace/dave_workspace/SOLAR_TOWER_XMC/Libraries/CMSIS/Include\core_cm0.h **** 
 484:C:/Users/Lenovo/workspace/dave_workspace/SOLAR_TOWER_XMC/Libraries/CMSIS/Include\core_cm0.h **** #define SysTick_CALIB_TENMS_Pos             0U                                            /*!< SysT
 485:C:/Users/Lenovo/workspace/dave_workspace/SOLAR_TOWER_XMC/Libraries/CMSIS/Include\core_cm0.h **** #define SysTick_CALIB_TENMS_Msk            (0xFFFFFFUL /*<< SysTick_CALIB_TENMS_Pos*/)    /*!< SysT
 486:C:/Users/Lenovo/workspace/dave_workspace/SOLAR_TOWER_XMC/Libraries/CMSIS/Include\core_cm0.h **** 
 487:C:/Users/Lenovo/workspace/dave_workspace/SOLAR_TOWER_XMC/Libraries/CMSIS/Include\core_cm0.h **** /*@} end of group CMSIS_SysTick */
 488:C:/Users/Lenovo/workspace/dave_workspace/SOLAR_TOWER_XMC/Libraries/CMSIS/Include\core_cm0.h **** 
 489:C:/Users/Lenovo/workspace/dave_workspace/SOLAR_TOWER_XMC/Libraries/CMSIS/Include\core_cm0.h **** 
 490:C:/Users/Lenovo/workspace/dave_workspace/SOLAR_TOWER_XMC/Libraries/CMSIS/Include\core_cm0.h **** /**
 491:C:/Users/Lenovo/workspace/dave_workspace/SOLAR_TOWER_XMC/Libraries/CMSIS/Include\core_cm0.h ****   \ingroup  CMSIS_core_register
 492:C:/Users/Lenovo/workspace/dave_workspace/SOLAR_TOWER_XMC/Libraries/CMSIS/Include\core_cm0.h ****   \defgroup CMSIS_CoreDebug       Core Debug Registers (CoreDebug)
 493:C:/Users/Lenovo/workspace/dave_workspace/SOLAR_TOWER_XMC/Libraries/CMSIS/Include\core_cm0.h ****   \brief    Cortex-M0 Core Debug Registers (DCB registers, SHCSR, and DFSR) are only accessible ove
 494:C:/Users/Lenovo/workspace/dave_workspace/SOLAR_TOWER_XMC/Libraries/CMSIS/Include\core_cm0.h ****             Therefore they are not covered by the Cortex-M0 header file.
 495:C:/Users/Lenovo/workspace/dave_workspace/SOLAR_TOWER_XMC/Libraries/CMSIS/Include\core_cm0.h ****   @{
 496:C:/Users/Lenovo/workspace/dave_workspace/SOLAR_TOWER_XMC/Libraries/CMSIS/Include\core_cm0.h ****  */
 497:C:/Users/Lenovo/workspace/dave_workspace/SOLAR_TOWER_XMC/Libraries/CMSIS/Include\core_cm0.h **** /*@} end of group CMSIS_CoreDebug */
 498:C:/Users/Lenovo/workspace/dave_workspace/SOLAR_TOWER_XMC/Libraries/CMSIS/Include\core_cm0.h **** 
 499:C:/Users/Lenovo/workspace/dave_workspace/SOLAR_TOWER_XMC/Libraries/CMSIS/Include\core_cm0.h **** 
 500:C:/Users/Lenovo/workspace/dave_workspace/SOLAR_TOWER_XMC/Libraries/CMSIS/Include\core_cm0.h **** /**
 501:C:/Users/Lenovo/workspace/dave_workspace/SOLAR_TOWER_XMC/Libraries/CMSIS/Include\core_cm0.h ****   \ingroup    CMSIS_core_register
 502:C:/Users/Lenovo/workspace/dave_workspace/SOLAR_TOWER_XMC/Libraries/CMSIS/Include\core_cm0.h ****   \defgroup   CMSIS_core_bitfield     Core register bit field macros
 503:C:/Users/Lenovo/workspace/dave_workspace/SOLAR_TOWER_XMC/Libraries/CMSIS/Include\core_cm0.h ****   \brief      Macros for use with bit field definitions (xxx_Pos, xxx_Msk).
 504:C:/Users/Lenovo/workspace/dave_workspace/SOLAR_TOWER_XMC/Libraries/CMSIS/Include\core_cm0.h ****   @{
 505:C:/Users/Lenovo/workspace/dave_workspace/SOLAR_TOWER_XMC/Libraries/CMSIS/Include\core_cm0.h ****  */
 506:C:/Users/Lenovo/workspace/dave_workspace/SOLAR_TOWER_XMC/Libraries/CMSIS/Include\core_cm0.h **** 
 507:C:/Users/Lenovo/workspace/dave_workspace/SOLAR_TOWER_XMC/Libraries/CMSIS/Include\core_cm0.h **** /**
 508:C:/Users/Lenovo/workspace/dave_workspace/SOLAR_TOWER_XMC/Libraries/CMSIS/Include\core_cm0.h ****   \brief   Mask and shift a bit field value for use in a register bit range.
 509:C:/Users/Lenovo/workspace/dave_workspace/SOLAR_TOWER_XMC/Libraries/CMSIS/Include\core_cm0.h ****   \param[in] field  Name of the register bit field.
 510:C:/Users/Lenovo/workspace/dave_workspace/SOLAR_TOWER_XMC/Libraries/CMSIS/Include\core_cm0.h ****   \param[in] value  Value of the bit field. This parameter is interpreted as an uint32_t type.
 511:C:/Users/Lenovo/workspace/dave_workspace/SOLAR_TOWER_XMC/Libraries/CMSIS/Include\core_cm0.h ****   \return           Masked and shifted value.
 512:C:/Users/Lenovo/workspace/dave_workspace/SOLAR_TOWER_XMC/Libraries/CMSIS/Include\core_cm0.h **** */
 513:C:/Users/Lenovo/workspace/dave_workspace/SOLAR_TOWER_XMC/Libraries/CMSIS/Include\core_cm0.h **** #define _VAL2FLD(field, value)    (((uint32_t)(value) << field ## _Pos) & field ## _Msk)
 514:C:/Users/Lenovo/workspace/dave_workspace/SOLAR_TOWER_XMC/Libraries/CMSIS/Include\core_cm0.h **** 
 515:C:/Users/Lenovo/workspace/dave_workspace/SOLAR_TOWER_XMC/Libraries/CMSIS/Include\core_cm0.h **** /**
 516:C:/Users/Lenovo/workspace/dave_workspace/SOLAR_TOWER_XMC/Libraries/CMSIS/Include\core_cm0.h ****   \brief     Mask and shift a register value to extract a bit filed value.
 517:C:/Users/Lenovo/workspace/dave_workspace/SOLAR_TOWER_XMC/Libraries/CMSIS/Include\core_cm0.h ****   \param[in] field  Name of the register bit field.
 518:C:/Users/Lenovo/workspace/dave_workspace/SOLAR_TOWER_XMC/Libraries/CMSIS/Include\core_cm0.h ****   \param[in] value  Value of register. This parameter is interpreted as an uint32_t type.
 519:C:/Users/Lenovo/workspace/dave_workspace/SOLAR_TOWER_XMC/Libraries/CMSIS/Include\core_cm0.h ****   \return           Masked and shifted bit field value.
 520:C:/Users/Lenovo/workspace/dave_workspace/SOLAR_TOWER_XMC/Libraries/CMSIS/Include\core_cm0.h **** */
 521:C:/Users/Lenovo/workspace/dave_workspace/SOLAR_TOWER_XMC/Libraries/CMSIS/Include\core_cm0.h **** #define _FLD2VAL(field, value)    (((uint32_t)(value) & field ## _Msk) >> field ## _Pos)
 522:C:/Users/Lenovo/workspace/dave_workspace/SOLAR_TOWER_XMC/Libraries/CMSIS/Include\core_cm0.h **** 
 523:C:/Users/Lenovo/workspace/dave_workspace/SOLAR_TOWER_XMC/Libraries/CMSIS/Include\core_cm0.h **** /*@} end of group CMSIS_core_bitfield */
 524:C:/Users/Lenovo/workspace/dave_workspace/SOLAR_TOWER_XMC/Libraries/CMSIS/Include\core_cm0.h **** 
 525:C:/Users/Lenovo/workspace/dave_workspace/SOLAR_TOWER_XMC/Libraries/CMSIS/Include\core_cm0.h **** 
 526:C:/Users/Lenovo/workspace/dave_workspace/SOLAR_TOWER_XMC/Libraries/CMSIS/Include\core_cm0.h **** /**
 527:C:/Users/Lenovo/workspace/dave_workspace/SOLAR_TOWER_XMC/Libraries/CMSIS/Include\core_cm0.h ****   \ingroup    CMSIS_core_register
 528:C:/Users/Lenovo/workspace/dave_workspace/SOLAR_TOWER_XMC/Libraries/CMSIS/Include\core_cm0.h ****   \defgroup   CMSIS_core_base     Core Definitions
 529:C:/Users/Lenovo/workspace/dave_workspace/SOLAR_TOWER_XMC/Libraries/CMSIS/Include\core_cm0.h ****   \brief      Definitions for base addresses, unions, and structures.
 530:C:/Users/Lenovo/workspace/dave_workspace/SOLAR_TOWER_XMC/Libraries/CMSIS/Include\core_cm0.h ****   @{
 531:C:/Users/Lenovo/workspace/dave_workspace/SOLAR_TOWER_XMC/Libraries/CMSIS/Include\core_cm0.h ****  */
 532:C:/Users/Lenovo/workspace/dave_workspace/SOLAR_TOWER_XMC/Libraries/CMSIS/Include\core_cm0.h **** 
 533:C:/Users/Lenovo/workspace/dave_workspace/SOLAR_TOWER_XMC/Libraries/CMSIS/Include\core_cm0.h **** /* Memory mapping of Core Hardware */
 534:C:/Users/Lenovo/workspace/dave_workspace/SOLAR_TOWER_XMC/Libraries/CMSIS/Include\core_cm0.h **** #define SCS_BASE            (0xE000E000UL)                            /*!< System Control Space Bas
 535:C:/Users/Lenovo/workspace/dave_workspace/SOLAR_TOWER_XMC/Libraries/CMSIS/Include\core_cm0.h **** #define SysTick_BASE        (SCS_BASE +  0x0010UL)                    /*!< SysTick Base Address */
 536:C:/Users/Lenovo/workspace/dave_workspace/SOLAR_TOWER_XMC/Libraries/CMSIS/Include\core_cm0.h **** #define NVIC_BASE           (SCS_BASE +  0x0100UL)                    /*!< NVIC Base Address */
 537:C:/Users/Lenovo/workspace/dave_workspace/SOLAR_TOWER_XMC/Libraries/CMSIS/Include\core_cm0.h **** #define SCB_BASE            (SCS_BASE +  0x0D00UL)                    /*!< System Control Block Bas
 538:C:/Users/Lenovo/workspace/dave_workspace/SOLAR_TOWER_XMC/Libraries/CMSIS/Include\core_cm0.h **** 
 539:C:/Users/Lenovo/workspace/dave_workspace/SOLAR_TOWER_XMC/Libraries/CMSIS/Include\core_cm0.h **** #define SCB                 ((SCB_Type       *)     SCB_BASE      )   /*!< SCB configuration struct
 540:C:/Users/Lenovo/workspace/dave_workspace/SOLAR_TOWER_XMC/Libraries/CMSIS/Include\core_cm0.h **** #define SysTick             ((SysTick_Type   *)     SysTick_BASE  )   /*!< SysTick configuration st
 541:C:/Users/Lenovo/workspace/dave_workspace/SOLAR_TOWER_XMC/Libraries/CMSIS/Include\core_cm0.h **** #define NVIC                ((NVIC_Type      *)     NVIC_BASE     )   /*!< NVIC configuration struc
 542:C:/Users/Lenovo/workspace/dave_workspace/SOLAR_TOWER_XMC/Libraries/CMSIS/Include\core_cm0.h **** 
 543:C:/Users/Lenovo/workspace/dave_workspace/SOLAR_TOWER_XMC/Libraries/CMSIS/Include\core_cm0.h **** 
 544:C:/Users/Lenovo/workspace/dave_workspace/SOLAR_TOWER_XMC/Libraries/CMSIS/Include\core_cm0.h **** /*@} */
 545:C:/Users/Lenovo/workspace/dave_workspace/SOLAR_TOWER_XMC/Libraries/CMSIS/Include\core_cm0.h **** 
 546:C:/Users/Lenovo/workspace/dave_workspace/SOLAR_TOWER_XMC/Libraries/CMSIS/Include\core_cm0.h **** 
 547:C:/Users/Lenovo/workspace/dave_workspace/SOLAR_TOWER_XMC/Libraries/CMSIS/Include\core_cm0.h **** 
 548:C:/Users/Lenovo/workspace/dave_workspace/SOLAR_TOWER_XMC/Libraries/CMSIS/Include\core_cm0.h **** /*******************************************************************************
 549:C:/Users/Lenovo/workspace/dave_workspace/SOLAR_TOWER_XMC/Libraries/CMSIS/Include\core_cm0.h ****  *                Hardware Abstraction Layer
 550:C:/Users/Lenovo/workspace/dave_workspace/SOLAR_TOWER_XMC/Libraries/CMSIS/Include\core_cm0.h ****   Core Function Interface contains:
 551:C:/Users/Lenovo/workspace/dave_workspace/SOLAR_TOWER_XMC/Libraries/CMSIS/Include\core_cm0.h ****   - Core NVIC Functions
 552:C:/Users/Lenovo/workspace/dave_workspace/SOLAR_TOWER_XMC/Libraries/CMSIS/Include\core_cm0.h ****   - Core SysTick Functions
 553:C:/Users/Lenovo/workspace/dave_workspace/SOLAR_TOWER_XMC/Libraries/CMSIS/Include\core_cm0.h ****   - Core Register Access Functions
 554:C:/Users/Lenovo/workspace/dave_workspace/SOLAR_TOWER_XMC/Libraries/CMSIS/Include\core_cm0.h ****  ******************************************************************************/
 555:C:/Users/Lenovo/workspace/dave_workspace/SOLAR_TOWER_XMC/Libraries/CMSIS/Include\core_cm0.h **** /**
 556:C:/Users/Lenovo/workspace/dave_workspace/SOLAR_TOWER_XMC/Libraries/CMSIS/Include\core_cm0.h ****   \defgroup CMSIS_Core_FunctionInterface Functions and Instructions Reference
 557:C:/Users/Lenovo/workspace/dave_workspace/SOLAR_TOWER_XMC/Libraries/CMSIS/Include\core_cm0.h **** */
 558:C:/Users/Lenovo/workspace/dave_workspace/SOLAR_TOWER_XMC/Libraries/CMSIS/Include\core_cm0.h **** 
 559:C:/Users/Lenovo/workspace/dave_workspace/SOLAR_TOWER_XMC/Libraries/CMSIS/Include\core_cm0.h **** 
 560:C:/Users/Lenovo/workspace/dave_workspace/SOLAR_TOWER_XMC/Libraries/CMSIS/Include\core_cm0.h **** 
 561:C:/Users/Lenovo/workspace/dave_workspace/SOLAR_TOWER_XMC/Libraries/CMSIS/Include\core_cm0.h **** /* ##########################   NVIC functions  #################################### */
 562:C:/Users/Lenovo/workspace/dave_workspace/SOLAR_TOWER_XMC/Libraries/CMSIS/Include\core_cm0.h **** /**
 563:C:/Users/Lenovo/workspace/dave_workspace/SOLAR_TOWER_XMC/Libraries/CMSIS/Include\core_cm0.h ****   \ingroup  CMSIS_Core_FunctionInterface
 564:C:/Users/Lenovo/workspace/dave_workspace/SOLAR_TOWER_XMC/Libraries/CMSIS/Include\core_cm0.h ****   \defgroup CMSIS_Core_NVICFunctions NVIC Functions
 565:C:/Users/Lenovo/workspace/dave_workspace/SOLAR_TOWER_XMC/Libraries/CMSIS/Include\core_cm0.h ****   \brief    Functions that manage interrupts and exceptions via the NVIC.
 566:C:/Users/Lenovo/workspace/dave_workspace/SOLAR_TOWER_XMC/Libraries/CMSIS/Include\core_cm0.h ****   @{
 567:C:/Users/Lenovo/workspace/dave_workspace/SOLAR_TOWER_XMC/Libraries/CMSIS/Include\core_cm0.h ****  */
 568:C:/Users/Lenovo/workspace/dave_workspace/SOLAR_TOWER_XMC/Libraries/CMSIS/Include\core_cm0.h **** 
 569:C:/Users/Lenovo/workspace/dave_workspace/SOLAR_TOWER_XMC/Libraries/CMSIS/Include\core_cm0.h **** #ifdef CMSIS_NVIC_VIRTUAL
 570:C:/Users/Lenovo/workspace/dave_workspace/SOLAR_TOWER_XMC/Libraries/CMSIS/Include\core_cm0.h ****   #ifndef CMSIS_NVIC_VIRTUAL_HEADER_FILE
 571:C:/Users/Lenovo/workspace/dave_workspace/SOLAR_TOWER_XMC/Libraries/CMSIS/Include\core_cm0.h ****     #define CMSIS_NVIC_VIRTUAL_HEADER_FILE "cmsis_nvic_virtual.h"
 572:C:/Users/Lenovo/workspace/dave_workspace/SOLAR_TOWER_XMC/Libraries/CMSIS/Include\core_cm0.h ****   #endif
 573:C:/Users/Lenovo/workspace/dave_workspace/SOLAR_TOWER_XMC/Libraries/CMSIS/Include\core_cm0.h ****   #include CMSIS_NVIC_VIRTUAL_HEADER_FILE
 574:C:/Users/Lenovo/workspace/dave_workspace/SOLAR_TOWER_XMC/Libraries/CMSIS/Include\core_cm0.h **** #else
 575:C:/Users/Lenovo/workspace/dave_workspace/SOLAR_TOWER_XMC/Libraries/CMSIS/Include\core_cm0.h ****   #define NVIC_SetPriorityGrouping    __NVIC_SetPriorityGrouping
 576:C:/Users/Lenovo/workspace/dave_workspace/SOLAR_TOWER_XMC/Libraries/CMSIS/Include\core_cm0.h ****   #define NVIC_GetPriorityGrouping    __NVIC_GetPriorityGrouping
 577:C:/Users/Lenovo/workspace/dave_workspace/SOLAR_TOWER_XMC/Libraries/CMSIS/Include\core_cm0.h ****   #define NVIC_EnableIRQ              __NVIC_EnableIRQ
 578:C:/Users/Lenovo/workspace/dave_workspace/SOLAR_TOWER_XMC/Libraries/CMSIS/Include\core_cm0.h ****   #define NVIC_GetEnableIRQ           __NVIC_GetEnableIRQ
 579:C:/Users/Lenovo/workspace/dave_workspace/SOLAR_TOWER_XMC/Libraries/CMSIS/Include\core_cm0.h ****   #define NVIC_DisableIRQ             __NVIC_DisableIRQ
 580:C:/Users/Lenovo/workspace/dave_workspace/SOLAR_TOWER_XMC/Libraries/CMSIS/Include\core_cm0.h ****   #define NVIC_GetPendingIRQ          __NVIC_GetPendingIRQ
 581:C:/Users/Lenovo/workspace/dave_workspace/SOLAR_TOWER_XMC/Libraries/CMSIS/Include\core_cm0.h ****   #define NVIC_SetPendingIRQ          __NVIC_SetPendingIRQ
 582:C:/Users/Lenovo/workspace/dave_workspace/SOLAR_TOWER_XMC/Libraries/CMSIS/Include\core_cm0.h ****   #define NVIC_ClearPendingIRQ        __NVIC_ClearPendingIRQ
 583:C:/Users/Lenovo/workspace/dave_workspace/SOLAR_TOWER_XMC/Libraries/CMSIS/Include\core_cm0.h **** /*#define NVIC_GetActive              __NVIC_GetActive             not available for Cortex-M0 */
 584:C:/Users/Lenovo/workspace/dave_workspace/SOLAR_TOWER_XMC/Libraries/CMSIS/Include\core_cm0.h ****   #define NVIC_SetPriority            __NVIC_SetPriority
 585:C:/Users/Lenovo/workspace/dave_workspace/SOLAR_TOWER_XMC/Libraries/CMSIS/Include\core_cm0.h ****   #define NVIC_GetPriority            __NVIC_GetPriority
 586:C:/Users/Lenovo/workspace/dave_workspace/SOLAR_TOWER_XMC/Libraries/CMSIS/Include\core_cm0.h ****   #define NVIC_SystemReset            __NVIC_SystemReset
 587:C:/Users/Lenovo/workspace/dave_workspace/SOLAR_TOWER_XMC/Libraries/CMSIS/Include\core_cm0.h **** #endif /* CMSIS_NVIC_VIRTUAL */
 588:C:/Users/Lenovo/workspace/dave_workspace/SOLAR_TOWER_XMC/Libraries/CMSIS/Include\core_cm0.h **** 
 589:C:/Users/Lenovo/workspace/dave_workspace/SOLAR_TOWER_XMC/Libraries/CMSIS/Include\core_cm0.h **** #ifdef CMSIS_VECTAB_VIRTUAL
 590:C:/Users/Lenovo/workspace/dave_workspace/SOLAR_TOWER_XMC/Libraries/CMSIS/Include\core_cm0.h ****   #ifndef CMSIS_VECTAB_VIRTUAL_HEADER_FILE
 591:C:/Users/Lenovo/workspace/dave_workspace/SOLAR_TOWER_XMC/Libraries/CMSIS/Include\core_cm0.h ****     #define CMSIS_VECTAB_VIRTUAL_HEADER_FILE "cmsis_vectab_virtual.h"
 592:C:/Users/Lenovo/workspace/dave_workspace/SOLAR_TOWER_XMC/Libraries/CMSIS/Include\core_cm0.h ****   #endif
 593:C:/Users/Lenovo/workspace/dave_workspace/SOLAR_TOWER_XMC/Libraries/CMSIS/Include\core_cm0.h ****   #include CMSIS_VECTAB_VIRTUAL_HEADER_FILE
 594:C:/Users/Lenovo/workspace/dave_workspace/SOLAR_TOWER_XMC/Libraries/CMSIS/Include\core_cm0.h **** #else
 595:C:/Users/Lenovo/workspace/dave_workspace/SOLAR_TOWER_XMC/Libraries/CMSIS/Include\core_cm0.h ****   #define NVIC_SetVector              __NVIC_SetVector
 596:C:/Users/Lenovo/workspace/dave_workspace/SOLAR_TOWER_XMC/Libraries/CMSIS/Include\core_cm0.h ****   #define NVIC_GetVector              __NVIC_GetVector
 597:C:/Users/Lenovo/workspace/dave_workspace/SOLAR_TOWER_XMC/Libraries/CMSIS/Include\core_cm0.h **** #endif  /* (CMSIS_VECTAB_VIRTUAL) */
 598:C:/Users/Lenovo/workspace/dave_workspace/SOLAR_TOWER_XMC/Libraries/CMSIS/Include\core_cm0.h **** 
 599:C:/Users/Lenovo/workspace/dave_workspace/SOLAR_TOWER_XMC/Libraries/CMSIS/Include\core_cm0.h **** #define NVIC_USER_IRQ_OFFSET          16
 600:C:/Users/Lenovo/workspace/dave_workspace/SOLAR_TOWER_XMC/Libraries/CMSIS/Include\core_cm0.h **** 
 601:C:/Users/Lenovo/workspace/dave_workspace/SOLAR_TOWER_XMC/Libraries/CMSIS/Include\core_cm0.h **** 
 602:C:/Users/Lenovo/workspace/dave_workspace/SOLAR_TOWER_XMC/Libraries/CMSIS/Include\core_cm0.h **** /* The following EXC_RETURN values are saved the LR on exception entry */
 603:C:/Users/Lenovo/workspace/dave_workspace/SOLAR_TOWER_XMC/Libraries/CMSIS/Include\core_cm0.h **** #define EXC_RETURN_HANDLER         (0xFFFFFFF1UL)     /* return to Handler mode, uses MSP after ret
 604:C:/Users/Lenovo/workspace/dave_workspace/SOLAR_TOWER_XMC/Libraries/CMSIS/Include\core_cm0.h **** #define EXC_RETURN_THREAD_MSP      (0xFFFFFFF9UL)     /* return to Thread mode, uses MSP after retu
 605:C:/Users/Lenovo/workspace/dave_workspace/SOLAR_TOWER_XMC/Libraries/CMSIS/Include\core_cm0.h **** #define EXC_RETURN_THREAD_PSP      (0xFFFFFFFDUL)     /* return to Thread mode, uses PSP after retu
 606:C:/Users/Lenovo/workspace/dave_workspace/SOLAR_TOWER_XMC/Libraries/CMSIS/Include\core_cm0.h **** 
 607:C:/Users/Lenovo/workspace/dave_workspace/SOLAR_TOWER_XMC/Libraries/CMSIS/Include\core_cm0.h **** 
 608:C:/Users/Lenovo/workspace/dave_workspace/SOLAR_TOWER_XMC/Libraries/CMSIS/Include\core_cm0.h **** /* Interrupt Priorities are WORD accessible only under Armv6-M                  */
 609:C:/Users/Lenovo/workspace/dave_workspace/SOLAR_TOWER_XMC/Libraries/CMSIS/Include\core_cm0.h **** /* The following MACROS handle generation of the register offset and byte masks */
 610:C:/Users/Lenovo/workspace/dave_workspace/SOLAR_TOWER_XMC/Libraries/CMSIS/Include\core_cm0.h **** #define _BIT_SHIFT(IRQn)         (  ((((uint32_t)(int32_t)(IRQn))         )      &  0x03UL) * 8UL)
 611:C:/Users/Lenovo/workspace/dave_workspace/SOLAR_TOWER_XMC/Libraries/CMSIS/Include\core_cm0.h **** #define _SHP_IDX(IRQn)           ( (((((uint32_t)(int32_t)(IRQn)) & 0x0FUL)-8UL) >>    2UL)      )
 612:C:/Users/Lenovo/workspace/dave_workspace/SOLAR_TOWER_XMC/Libraries/CMSIS/Include\core_cm0.h **** #define _IP_IDX(IRQn)            (   (((uint32_t)(int32_t)(IRQn))                >>    2UL)      )
 613:C:/Users/Lenovo/workspace/dave_workspace/SOLAR_TOWER_XMC/Libraries/CMSIS/Include\core_cm0.h **** 
 614:C:/Users/Lenovo/workspace/dave_workspace/SOLAR_TOWER_XMC/Libraries/CMSIS/Include\core_cm0.h **** #define __NVIC_SetPriorityGrouping(X) (void)(X)
 615:C:/Users/Lenovo/workspace/dave_workspace/SOLAR_TOWER_XMC/Libraries/CMSIS/Include\core_cm0.h **** #define __NVIC_GetPriorityGrouping()  (0U)
 616:C:/Users/Lenovo/workspace/dave_workspace/SOLAR_TOWER_XMC/Libraries/CMSIS/Include\core_cm0.h **** 
 617:C:/Users/Lenovo/workspace/dave_workspace/SOLAR_TOWER_XMC/Libraries/CMSIS/Include\core_cm0.h **** /**
 618:C:/Users/Lenovo/workspace/dave_workspace/SOLAR_TOWER_XMC/Libraries/CMSIS/Include\core_cm0.h ****   \brief   Enable Interrupt
 619:C:/Users/Lenovo/workspace/dave_workspace/SOLAR_TOWER_XMC/Libraries/CMSIS/Include\core_cm0.h ****   \details Enables a device specific interrupt in the NVIC interrupt controller.
 620:C:/Users/Lenovo/workspace/dave_workspace/SOLAR_TOWER_XMC/Libraries/CMSIS/Include\core_cm0.h ****   \param [in]      IRQn  Device specific interrupt number.
 621:C:/Users/Lenovo/workspace/dave_workspace/SOLAR_TOWER_XMC/Libraries/CMSIS/Include\core_cm0.h ****   \note    IRQn must not be negative.
 622:C:/Users/Lenovo/workspace/dave_workspace/SOLAR_TOWER_XMC/Libraries/CMSIS/Include\core_cm0.h ****  */
 623:C:/Users/Lenovo/workspace/dave_workspace/SOLAR_TOWER_XMC/Libraries/CMSIS/Include\core_cm0.h **** __STATIC_INLINE void __NVIC_EnableIRQ(IRQn_Type IRQn)
 624:C:/Users/Lenovo/workspace/dave_workspace/SOLAR_TOWER_XMC/Libraries/CMSIS/Include\core_cm0.h **** {
 625:C:/Users/Lenovo/workspace/dave_workspace/SOLAR_TOWER_XMC/Libraries/CMSIS/Include\core_cm0.h ****   if ((int32_t)(IRQn) >= 0)
 626:C:/Users/Lenovo/workspace/dave_workspace/SOLAR_TOWER_XMC/Libraries/CMSIS/Include\core_cm0.h ****   {
 627:C:/Users/Lenovo/workspace/dave_workspace/SOLAR_TOWER_XMC/Libraries/CMSIS/Include\core_cm0.h ****     __COMPILER_BARRIER();
 628:C:/Users/Lenovo/workspace/dave_workspace/SOLAR_TOWER_XMC/Libraries/CMSIS/Include\core_cm0.h ****     NVIC->ISER[0U] = (uint32_t)(1UL << (((uint32_t)IRQn) & 0x1FUL));
 629:C:/Users/Lenovo/workspace/dave_workspace/SOLAR_TOWER_XMC/Libraries/CMSIS/Include\core_cm0.h ****     __COMPILER_BARRIER();
 630:C:/Users/Lenovo/workspace/dave_workspace/SOLAR_TOWER_XMC/Libraries/CMSIS/Include\core_cm0.h ****   }
 631:C:/Users/Lenovo/workspace/dave_workspace/SOLAR_TOWER_XMC/Libraries/CMSIS/Include\core_cm0.h **** }
 632:C:/Users/Lenovo/workspace/dave_workspace/SOLAR_TOWER_XMC/Libraries/CMSIS/Include\core_cm0.h **** 
 633:C:/Users/Lenovo/workspace/dave_workspace/SOLAR_TOWER_XMC/Libraries/CMSIS/Include\core_cm0.h **** 
 634:C:/Users/Lenovo/workspace/dave_workspace/SOLAR_TOWER_XMC/Libraries/CMSIS/Include\core_cm0.h **** /**
 635:C:/Users/Lenovo/workspace/dave_workspace/SOLAR_TOWER_XMC/Libraries/CMSIS/Include\core_cm0.h ****   \brief   Get Interrupt Enable status
 636:C:/Users/Lenovo/workspace/dave_workspace/SOLAR_TOWER_XMC/Libraries/CMSIS/Include\core_cm0.h ****   \details Returns a device specific interrupt enable status from the NVIC interrupt controller.
 637:C:/Users/Lenovo/workspace/dave_workspace/SOLAR_TOWER_XMC/Libraries/CMSIS/Include\core_cm0.h ****   \param [in]      IRQn  Device specific interrupt number.
 638:C:/Users/Lenovo/workspace/dave_workspace/SOLAR_TOWER_XMC/Libraries/CMSIS/Include\core_cm0.h ****   \return             0  Interrupt is not enabled.
 639:C:/Users/Lenovo/workspace/dave_workspace/SOLAR_TOWER_XMC/Libraries/CMSIS/Include\core_cm0.h ****   \return             1  Interrupt is enabled.
 640:C:/Users/Lenovo/workspace/dave_workspace/SOLAR_TOWER_XMC/Libraries/CMSIS/Include\core_cm0.h ****   \note    IRQn must not be negative.
 641:C:/Users/Lenovo/workspace/dave_workspace/SOLAR_TOWER_XMC/Libraries/CMSIS/Include\core_cm0.h ****  */
 642:C:/Users/Lenovo/workspace/dave_workspace/SOLAR_TOWER_XMC/Libraries/CMSIS/Include\core_cm0.h **** __STATIC_INLINE uint32_t __NVIC_GetEnableIRQ(IRQn_Type IRQn)
 643:C:/Users/Lenovo/workspace/dave_workspace/SOLAR_TOWER_XMC/Libraries/CMSIS/Include\core_cm0.h **** {
 644:C:/Users/Lenovo/workspace/dave_workspace/SOLAR_TOWER_XMC/Libraries/CMSIS/Include\core_cm0.h ****   if ((int32_t)(IRQn) >= 0)
 645:C:/Users/Lenovo/workspace/dave_workspace/SOLAR_TOWER_XMC/Libraries/CMSIS/Include\core_cm0.h ****   {
 646:C:/Users/Lenovo/workspace/dave_workspace/SOLAR_TOWER_XMC/Libraries/CMSIS/Include\core_cm0.h ****     return((uint32_t)(((NVIC->ISER[0U] & (1UL << (((uint32_t)IRQn) & 0x1FUL))) != 0UL) ? 1UL : 0UL)
 647:C:/Users/Lenovo/workspace/dave_workspace/SOLAR_TOWER_XMC/Libraries/CMSIS/Include\core_cm0.h ****   }
 648:C:/Users/Lenovo/workspace/dave_workspace/SOLAR_TOWER_XMC/Libraries/CMSIS/Include\core_cm0.h ****   else
 649:C:/Users/Lenovo/workspace/dave_workspace/SOLAR_TOWER_XMC/Libraries/CMSIS/Include\core_cm0.h ****   {
 650:C:/Users/Lenovo/workspace/dave_workspace/SOLAR_TOWER_XMC/Libraries/CMSIS/Include\core_cm0.h ****     return(0U);
 651:C:/Users/Lenovo/workspace/dave_workspace/SOLAR_TOWER_XMC/Libraries/CMSIS/Include\core_cm0.h ****   }
 652:C:/Users/Lenovo/workspace/dave_workspace/SOLAR_TOWER_XMC/Libraries/CMSIS/Include\core_cm0.h **** }
 653:C:/Users/Lenovo/workspace/dave_workspace/SOLAR_TOWER_XMC/Libraries/CMSIS/Include\core_cm0.h **** 
 654:C:/Users/Lenovo/workspace/dave_workspace/SOLAR_TOWER_XMC/Libraries/CMSIS/Include\core_cm0.h **** 
 655:C:/Users/Lenovo/workspace/dave_workspace/SOLAR_TOWER_XMC/Libraries/CMSIS/Include\core_cm0.h **** /**
 656:C:/Users/Lenovo/workspace/dave_workspace/SOLAR_TOWER_XMC/Libraries/CMSIS/Include\core_cm0.h ****   \brief   Disable Interrupt
 657:C:/Users/Lenovo/workspace/dave_workspace/SOLAR_TOWER_XMC/Libraries/CMSIS/Include\core_cm0.h ****   \details Disables a device specific interrupt in the NVIC interrupt controller.
 658:C:/Users/Lenovo/workspace/dave_workspace/SOLAR_TOWER_XMC/Libraries/CMSIS/Include\core_cm0.h ****   \param [in]      IRQn  Device specific interrupt number.
 659:C:/Users/Lenovo/workspace/dave_workspace/SOLAR_TOWER_XMC/Libraries/CMSIS/Include\core_cm0.h ****   \note    IRQn must not be negative.
 660:C:/Users/Lenovo/workspace/dave_workspace/SOLAR_TOWER_XMC/Libraries/CMSIS/Include\core_cm0.h ****  */
 661:C:/Users/Lenovo/workspace/dave_workspace/SOLAR_TOWER_XMC/Libraries/CMSIS/Include\core_cm0.h **** __STATIC_INLINE void __NVIC_DisableIRQ(IRQn_Type IRQn)
 662:C:/Users/Lenovo/workspace/dave_workspace/SOLAR_TOWER_XMC/Libraries/CMSIS/Include\core_cm0.h **** {
 663:C:/Users/Lenovo/workspace/dave_workspace/SOLAR_TOWER_XMC/Libraries/CMSIS/Include\core_cm0.h ****   if ((int32_t)(IRQn) >= 0)
 664:C:/Users/Lenovo/workspace/dave_workspace/SOLAR_TOWER_XMC/Libraries/CMSIS/Include\core_cm0.h ****   {
 665:C:/Users/Lenovo/workspace/dave_workspace/SOLAR_TOWER_XMC/Libraries/CMSIS/Include\core_cm0.h ****     NVIC->ICER[0U] = (uint32_t)(1UL << (((uint32_t)IRQn) & 0x1FUL));
 666:C:/Users/Lenovo/workspace/dave_workspace/SOLAR_TOWER_XMC/Libraries/CMSIS/Include\core_cm0.h ****     __DSB();
 667:C:/Users/Lenovo/workspace/dave_workspace/SOLAR_TOWER_XMC/Libraries/CMSIS/Include\core_cm0.h ****     __ISB();
 668:C:/Users/Lenovo/workspace/dave_workspace/SOLAR_TOWER_XMC/Libraries/CMSIS/Include\core_cm0.h ****   }
 669:C:/Users/Lenovo/workspace/dave_workspace/SOLAR_TOWER_XMC/Libraries/CMSIS/Include\core_cm0.h **** }
 670:C:/Users/Lenovo/workspace/dave_workspace/SOLAR_TOWER_XMC/Libraries/CMSIS/Include\core_cm0.h **** 
 671:C:/Users/Lenovo/workspace/dave_workspace/SOLAR_TOWER_XMC/Libraries/CMSIS/Include\core_cm0.h **** 
 672:C:/Users/Lenovo/workspace/dave_workspace/SOLAR_TOWER_XMC/Libraries/CMSIS/Include\core_cm0.h **** /**
 673:C:/Users/Lenovo/workspace/dave_workspace/SOLAR_TOWER_XMC/Libraries/CMSIS/Include\core_cm0.h ****   \brief   Get Pending Interrupt
 674:C:/Users/Lenovo/workspace/dave_workspace/SOLAR_TOWER_XMC/Libraries/CMSIS/Include\core_cm0.h ****   \details Reads the NVIC pending register and returns the pending bit for the specified device spe
 675:C:/Users/Lenovo/workspace/dave_workspace/SOLAR_TOWER_XMC/Libraries/CMSIS/Include\core_cm0.h ****   \param [in]      IRQn  Device specific interrupt number.
 676:C:/Users/Lenovo/workspace/dave_workspace/SOLAR_TOWER_XMC/Libraries/CMSIS/Include\core_cm0.h ****   \return             0  Interrupt status is not pending.
 677:C:/Users/Lenovo/workspace/dave_workspace/SOLAR_TOWER_XMC/Libraries/CMSIS/Include\core_cm0.h ****   \return             1  Interrupt status is pending.
 678:C:/Users/Lenovo/workspace/dave_workspace/SOLAR_TOWER_XMC/Libraries/CMSIS/Include\core_cm0.h ****   \note    IRQn must not be negative.
 679:C:/Users/Lenovo/workspace/dave_workspace/SOLAR_TOWER_XMC/Libraries/CMSIS/Include\core_cm0.h ****  */
 680:C:/Users/Lenovo/workspace/dave_workspace/SOLAR_TOWER_XMC/Libraries/CMSIS/Include\core_cm0.h **** __STATIC_INLINE uint32_t __NVIC_GetPendingIRQ(IRQn_Type IRQn)
 681:C:/Users/Lenovo/workspace/dave_workspace/SOLAR_TOWER_XMC/Libraries/CMSIS/Include\core_cm0.h **** {
 682:C:/Users/Lenovo/workspace/dave_workspace/SOLAR_TOWER_XMC/Libraries/CMSIS/Include\core_cm0.h ****   if ((int32_t)(IRQn) >= 0)
 683:C:/Users/Lenovo/workspace/dave_workspace/SOLAR_TOWER_XMC/Libraries/CMSIS/Include\core_cm0.h ****   {
 684:C:/Users/Lenovo/workspace/dave_workspace/SOLAR_TOWER_XMC/Libraries/CMSIS/Include\core_cm0.h ****     return((uint32_t)(((NVIC->ISPR[0U] & (1UL << (((uint32_t)IRQn) & 0x1FUL))) != 0UL) ? 1UL : 0UL)
 685:C:/Users/Lenovo/workspace/dave_workspace/SOLAR_TOWER_XMC/Libraries/CMSIS/Include\core_cm0.h ****   }
 686:C:/Users/Lenovo/workspace/dave_workspace/SOLAR_TOWER_XMC/Libraries/CMSIS/Include\core_cm0.h ****   else
 687:C:/Users/Lenovo/workspace/dave_workspace/SOLAR_TOWER_XMC/Libraries/CMSIS/Include\core_cm0.h ****   {
 688:C:/Users/Lenovo/workspace/dave_workspace/SOLAR_TOWER_XMC/Libraries/CMSIS/Include\core_cm0.h ****     return(0U);
 689:C:/Users/Lenovo/workspace/dave_workspace/SOLAR_TOWER_XMC/Libraries/CMSIS/Include\core_cm0.h ****   }
 690:C:/Users/Lenovo/workspace/dave_workspace/SOLAR_TOWER_XMC/Libraries/CMSIS/Include\core_cm0.h **** }
 691:C:/Users/Lenovo/workspace/dave_workspace/SOLAR_TOWER_XMC/Libraries/CMSIS/Include\core_cm0.h **** 
 692:C:/Users/Lenovo/workspace/dave_workspace/SOLAR_TOWER_XMC/Libraries/CMSIS/Include\core_cm0.h **** 
 693:C:/Users/Lenovo/workspace/dave_workspace/SOLAR_TOWER_XMC/Libraries/CMSIS/Include\core_cm0.h **** /**
 694:C:/Users/Lenovo/workspace/dave_workspace/SOLAR_TOWER_XMC/Libraries/CMSIS/Include\core_cm0.h ****   \brief   Set Pending Interrupt
 695:C:/Users/Lenovo/workspace/dave_workspace/SOLAR_TOWER_XMC/Libraries/CMSIS/Include\core_cm0.h ****   \details Sets the pending bit of a device specific interrupt in the NVIC pending register.
 696:C:/Users/Lenovo/workspace/dave_workspace/SOLAR_TOWER_XMC/Libraries/CMSIS/Include\core_cm0.h ****   \param [in]      IRQn  Device specific interrupt number.
 697:C:/Users/Lenovo/workspace/dave_workspace/SOLAR_TOWER_XMC/Libraries/CMSIS/Include\core_cm0.h ****   \note    IRQn must not be negative.
 698:C:/Users/Lenovo/workspace/dave_workspace/SOLAR_TOWER_XMC/Libraries/CMSIS/Include\core_cm0.h ****  */
 699:C:/Users/Lenovo/workspace/dave_workspace/SOLAR_TOWER_XMC/Libraries/CMSIS/Include\core_cm0.h **** __STATIC_INLINE void __NVIC_SetPendingIRQ(IRQn_Type IRQn)
 700:C:/Users/Lenovo/workspace/dave_workspace/SOLAR_TOWER_XMC/Libraries/CMSIS/Include\core_cm0.h **** {
 701:C:/Users/Lenovo/workspace/dave_workspace/SOLAR_TOWER_XMC/Libraries/CMSIS/Include\core_cm0.h ****   if ((int32_t)(IRQn) >= 0)
 702:C:/Users/Lenovo/workspace/dave_workspace/SOLAR_TOWER_XMC/Libraries/CMSIS/Include\core_cm0.h ****   {
 703:C:/Users/Lenovo/workspace/dave_workspace/SOLAR_TOWER_XMC/Libraries/CMSIS/Include\core_cm0.h ****     NVIC->ISPR[0U] = (uint32_t)(1UL << (((uint32_t)IRQn) & 0x1FUL));
 704:C:/Users/Lenovo/workspace/dave_workspace/SOLAR_TOWER_XMC/Libraries/CMSIS/Include\core_cm0.h ****   }
 705:C:/Users/Lenovo/workspace/dave_workspace/SOLAR_TOWER_XMC/Libraries/CMSIS/Include\core_cm0.h **** }
 706:C:/Users/Lenovo/workspace/dave_workspace/SOLAR_TOWER_XMC/Libraries/CMSIS/Include\core_cm0.h **** 
 707:C:/Users/Lenovo/workspace/dave_workspace/SOLAR_TOWER_XMC/Libraries/CMSIS/Include\core_cm0.h **** 
 708:C:/Users/Lenovo/workspace/dave_workspace/SOLAR_TOWER_XMC/Libraries/CMSIS/Include\core_cm0.h **** /**
 709:C:/Users/Lenovo/workspace/dave_workspace/SOLAR_TOWER_XMC/Libraries/CMSIS/Include\core_cm0.h ****   \brief   Clear Pending Interrupt
 710:C:/Users/Lenovo/workspace/dave_workspace/SOLAR_TOWER_XMC/Libraries/CMSIS/Include\core_cm0.h ****   \details Clears the pending bit of a device specific interrupt in the NVIC pending register.
 711:C:/Users/Lenovo/workspace/dave_workspace/SOLAR_TOWER_XMC/Libraries/CMSIS/Include\core_cm0.h ****   \param [in]      IRQn  Device specific interrupt number.
 712:C:/Users/Lenovo/workspace/dave_workspace/SOLAR_TOWER_XMC/Libraries/CMSIS/Include\core_cm0.h ****   \note    IRQn must not be negative.
 713:C:/Users/Lenovo/workspace/dave_workspace/SOLAR_TOWER_XMC/Libraries/CMSIS/Include\core_cm0.h ****  */
 714:C:/Users/Lenovo/workspace/dave_workspace/SOLAR_TOWER_XMC/Libraries/CMSIS/Include\core_cm0.h **** __STATIC_INLINE void __NVIC_ClearPendingIRQ(IRQn_Type IRQn)
 715:C:/Users/Lenovo/workspace/dave_workspace/SOLAR_TOWER_XMC/Libraries/CMSIS/Include\core_cm0.h **** {
 716:C:/Users/Lenovo/workspace/dave_workspace/SOLAR_TOWER_XMC/Libraries/CMSIS/Include\core_cm0.h ****   if ((int32_t)(IRQn) >= 0)
 717:C:/Users/Lenovo/workspace/dave_workspace/SOLAR_TOWER_XMC/Libraries/CMSIS/Include\core_cm0.h ****   {
 718:C:/Users/Lenovo/workspace/dave_workspace/SOLAR_TOWER_XMC/Libraries/CMSIS/Include\core_cm0.h ****     NVIC->ICPR[0U] = (uint32_t)(1UL << (((uint32_t)IRQn) & 0x1FUL));
 719:C:/Users/Lenovo/workspace/dave_workspace/SOLAR_TOWER_XMC/Libraries/CMSIS/Include\core_cm0.h ****   }
 720:C:/Users/Lenovo/workspace/dave_workspace/SOLAR_TOWER_XMC/Libraries/CMSIS/Include\core_cm0.h **** }
 721:C:/Users/Lenovo/workspace/dave_workspace/SOLAR_TOWER_XMC/Libraries/CMSIS/Include\core_cm0.h **** 
 722:C:/Users/Lenovo/workspace/dave_workspace/SOLAR_TOWER_XMC/Libraries/CMSIS/Include\core_cm0.h **** 
 723:C:/Users/Lenovo/workspace/dave_workspace/SOLAR_TOWER_XMC/Libraries/CMSIS/Include\core_cm0.h **** /**
 724:C:/Users/Lenovo/workspace/dave_workspace/SOLAR_TOWER_XMC/Libraries/CMSIS/Include\core_cm0.h ****   \brief   Set Interrupt Priority
 725:C:/Users/Lenovo/workspace/dave_workspace/SOLAR_TOWER_XMC/Libraries/CMSIS/Include\core_cm0.h ****   \details Sets the priority of a device specific interrupt or a processor exception.
 726:C:/Users/Lenovo/workspace/dave_workspace/SOLAR_TOWER_XMC/Libraries/CMSIS/Include\core_cm0.h ****            The interrupt number can be positive to specify a device specific interrupt,
 727:C:/Users/Lenovo/workspace/dave_workspace/SOLAR_TOWER_XMC/Libraries/CMSIS/Include\core_cm0.h ****            or negative to specify a processor exception.
 728:C:/Users/Lenovo/workspace/dave_workspace/SOLAR_TOWER_XMC/Libraries/CMSIS/Include\core_cm0.h ****   \param [in]      IRQn  Interrupt number.
 729:C:/Users/Lenovo/workspace/dave_workspace/SOLAR_TOWER_XMC/Libraries/CMSIS/Include\core_cm0.h ****   \param [in]  priority  Priority to set.
 730:C:/Users/Lenovo/workspace/dave_workspace/SOLAR_TOWER_XMC/Libraries/CMSIS/Include\core_cm0.h ****   \note    The priority cannot be set for every processor exception.
 731:C:/Users/Lenovo/workspace/dave_workspace/SOLAR_TOWER_XMC/Libraries/CMSIS/Include\core_cm0.h ****  */
 732:C:/Users/Lenovo/workspace/dave_workspace/SOLAR_TOWER_XMC/Libraries/CMSIS/Include\core_cm0.h **** __STATIC_INLINE void __NVIC_SetPriority(IRQn_Type IRQn, uint32_t priority)
 733:C:/Users/Lenovo/workspace/dave_workspace/SOLAR_TOWER_XMC/Libraries/CMSIS/Include\core_cm0.h **** {
  25              	 .loc 1 733 0
  26              	 .cfi_startproc
  27 0000 B0B5     	 push {r4,r5,r7,lr}
  28              	.LCFI0:
  29              	 .cfi_def_cfa_offset 16
  30              	 .cfi_offset 4,-16
  31              	 .cfi_offset 5,-12
  32              	 .cfi_offset 7,-8
  33              	 .cfi_offset 14,-4
  34 0002 82B0     	 sub sp,sp,#8
  35              	.LCFI1:
  36              	 .cfi_def_cfa_offset 24
  37 0004 00AF     	 add r7,sp,#0
  38              	.LCFI2:
  39              	 .cfi_def_cfa_register 7
  40 0006 021C     	 mov r2,r0
  41 0008 3960     	 str r1,[r7]
  42 000a FB1D     	 add r3,r7,#7
  43 000c 1A70     	 strb r2,[r3]
 734:C:/Users/Lenovo/workspace/dave_workspace/SOLAR_TOWER_XMC/Libraries/CMSIS/Include\core_cm0.h ****   if ((int32_t)(IRQn) >= 0)
  44              	 .loc 1 734 0
  45 000e FB1D     	 add r3,r7,#7
  46 0010 1B78     	 ldrb r3,[r3]
  47 0012 7F2B     	 cmp r3,#127
  48 0014 27D8     	 bhi .L2
 735:C:/Users/Lenovo/workspace/dave_workspace/SOLAR_TOWER_XMC/Libraries/CMSIS/Include\core_cm0.h ****   {
 736:C:/Users/Lenovo/workspace/dave_workspace/SOLAR_TOWER_XMC/Libraries/CMSIS/Include\core_cm0.h ****     NVIC->IP[_IP_IDX(IRQn)]  = ((uint32_t)(NVIC->IP[_IP_IDX(IRQn)]  & ~(0xFFUL << _BIT_SHIFT(IRQn))
  49              	 .loc 1 736 0
  50 0016 2D4C     	 ldr r4,.L4
  51 0018 FB1D     	 add r3,r7,#7
  52 001a 1B78     	 ldrb r3,[r3]
  53 001c 5BB2     	 sxtb r3,r3
  54 001e 9B08     	 lsr r3,r3,#2
  55 0020 2A49     	 ldr r1,.L4
  56 0022 FA1D     	 add r2,r7,#7
  57 0024 1278     	 ldrb r2,[r2]
  58 0026 52B2     	 sxtb r2,r2
  59 0028 9208     	 lsr r2,r2,#2
  60 002a C032     	 add r2,r2,#192
  61 002c 9200     	 lsl r2,r2,#2
  62 002e 5258     	 ldr r2,[r2,r1]
  63 0030 F91D     	 add r1,r7,#7
  64 0032 0978     	 ldrb r1,[r1]
  65 0034 081C     	 mov r0,r1
  66 0036 0321     	 mov r1,#3
  67 0038 0140     	 and r1,r0
  68 003a C900     	 lsl r1,r1,#3
  69 003c 081C     	 mov r0,r1
  70 003e FF21     	 mov r1,#255
  71 0040 8140     	 lsl r1,r1,r0
  72 0042 C943     	 mvn r1,r1
  73 0044 1140     	 and r1,r2
 737:C:/Users/Lenovo/workspace/dave_workspace/SOLAR_TOWER_XMC/Libraries/CMSIS/Include\core_cm0.h ****        (((priority << (8U - __NVIC_PRIO_BITS)) & (uint32_t)0xFFUL) << _BIT_SHIFT(IRQn)));
  74              	 .loc 1 737 0
  75 0046 3A68     	 ldr r2,[r7]
  76 0048 9201     	 lsl r2,r2,#6
  77 004a FF20     	 mov r0,#255
  78 004c 0240     	 and r2,r0
  79 004e F81D     	 add r0,r7,#7
  80 0050 0078     	 ldrb r0,[r0]
  81 0052 051C     	 mov r5,r0
  82 0054 0320     	 mov r0,#3
  83 0056 2840     	 and r0,r5
  84 0058 C000     	 lsl r0,r0,#3
  85 005a 8240     	 lsl r2,r2,r0
 736:C:/Users/Lenovo/workspace/dave_workspace/SOLAR_TOWER_XMC/Libraries/CMSIS/Include\core_cm0.h ****        (((priority << (8U - __NVIC_PRIO_BITS)) & (uint32_t)0xFFUL) << _BIT_SHIFT(IRQn)));
  86              	 .loc 1 736 0
  87 005c 0A43     	 orr r2,r1
  88 005e C033     	 add r3,r3,#192
  89 0060 9B00     	 lsl r3,r3,#2
  90 0062 1A51     	 str r2,[r3,r4]
  91 0064 2EE0     	 b .L1
  92              	.L2:
 738:C:/Users/Lenovo/workspace/dave_workspace/SOLAR_TOWER_XMC/Libraries/CMSIS/Include\core_cm0.h ****   }
 739:C:/Users/Lenovo/workspace/dave_workspace/SOLAR_TOWER_XMC/Libraries/CMSIS/Include\core_cm0.h ****   else
 740:C:/Users/Lenovo/workspace/dave_workspace/SOLAR_TOWER_XMC/Libraries/CMSIS/Include\core_cm0.h ****   {
 741:C:/Users/Lenovo/workspace/dave_workspace/SOLAR_TOWER_XMC/Libraries/CMSIS/Include\core_cm0.h ****     SCB->SHP[_SHP_IDX(IRQn)] = ((uint32_t)(SCB->SHP[_SHP_IDX(IRQn)] & ~(0xFFUL << _BIT_SHIFT(IRQn))
  93              	 .loc 1 741 0
  94 0066 1A4C     	 ldr r4,.L4+4
  95 0068 FB1D     	 add r3,r7,#7
  96 006a 1B78     	 ldrb r3,[r3]
  97 006c 1A1C     	 mov r2,r3
  98 006e 0F23     	 mov r3,#15
  99 0070 1340     	 and r3,r2
 100 0072 083B     	 sub r3,r3,#8
 101 0074 9908     	 lsr r1,r3,#2
 102 0076 164A     	 ldr r2,.L4+4
 103 0078 FB1D     	 add r3,r7,#7
 104 007a 1B78     	 ldrb r3,[r3]
 105 007c 181C     	 mov r0,r3
 106 007e 0F23     	 mov r3,#15
 107 0080 0340     	 and r3,r0
 108 0082 083B     	 sub r3,r3,#8
 109 0084 9B08     	 lsr r3,r3,#2
 110 0086 0633     	 add r3,r3,#6
 111 0088 9B00     	 lsl r3,r3,#2
 112 008a D318     	 add r3,r2,r3
 113 008c 5B68     	 ldr r3,[r3,#4]
 114 008e FA1D     	 add r2,r7,#7
 115 0090 1278     	 ldrb r2,[r2]
 116 0092 101C     	 mov r0,r2
 117 0094 0322     	 mov r2,#3
 118 0096 0240     	 and r2,r0
 119 0098 D200     	 lsl r2,r2,#3
 120 009a 101C     	 mov r0,r2
 121 009c FF22     	 mov r2,#255
 122 009e 8240     	 lsl r2,r2,r0
 123 00a0 D243     	 mvn r2,r2
 124 00a2 1A40     	 and r2,r3
 742:C:/Users/Lenovo/workspace/dave_workspace/SOLAR_TOWER_XMC/Libraries/CMSIS/Include\core_cm0.h ****        (((priority << (8U - __NVIC_PRIO_BITS)) & (uint32_t)0xFFUL) << _BIT_SHIFT(IRQn)));
 125              	 .loc 1 742 0
 126 00a4 3B68     	 ldr r3,[r7]
 127 00a6 9B01     	 lsl r3,r3,#6
 128 00a8 FF20     	 mov r0,#255
 129 00aa 0340     	 and r3,r0
 130 00ac F81D     	 add r0,r7,#7
 131 00ae 0078     	 ldrb r0,[r0]
 132 00b0 051C     	 mov r5,r0
 133 00b2 0320     	 mov r0,#3
 134 00b4 2840     	 and r0,r5
 135 00b6 C000     	 lsl r0,r0,#3
 136 00b8 8340     	 lsl r3,r3,r0
 741:C:/Users/Lenovo/workspace/dave_workspace/SOLAR_TOWER_XMC/Libraries/CMSIS/Include\core_cm0.h ****        (((priority << (8U - __NVIC_PRIO_BITS)) & (uint32_t)0xFFUL) << _BIT_SHIFT(IRQn)));
 137              	 .loc 1 741 0
 138 00ba 1A43     	 orr r2,r3
 139 00bc 8B1D     	 add r3,r1,#6
 140 00be 9B00     	 lsl r3,r3,#2
 141 00c0 E318     	 add r3,r4,r3
 142 00c2 5A60     	 str r2,[r3,#4]
 143              	.L1:
 743:C:/Users/Lenovo/workspace/dave_workspace/SOLAR_TOWER_XMC/Libraries/CMSIS/Include\core_cm0.h ****   }
 744:C:/Users/Lenovo/workspace/dave_workspace/SOLAR_TOWER_XMC/Libraries/CMSIS/Include\core_cm0.h **** }
 144              	 .loc 1 744 0
 145 00c4 BD46     	 mov sp,r7
 146 00c6 02B0     	 add sp,sp,#8
 147              	 
 148 00c8 B0BD     	 pop {r4,r5,r7,pc}
 149              	.L5:
 150 00ca C046     	 .align 2
 151              	.L4:
 152 00cc 00E100E0 	 .word -536813312
 153 00d0 00ED00E0 	 .word -536810240
 154              	 .cfi_endproc
 155              	.LFE33:
 157              	 .section .text.SysTick_Config,"ax",%progbits
 158              	 .align 2
 159              	 .code 16
 160              	 .thumb_func
 162              	SysTick_Config:
 163              	.LFB41:
 745:C:/Users/Lenovo/workspace/dave_workspace/SOLAR_TOWER_XMC/Libraries/CMSIS/Include\core_cm0.h **** 
 746:C:/Users/Lenovo/workspace/dave_workspace/SOLAR_TOWER_XMC/Libraries/CMSIS/Include\core_cm0.h **** 
 747:C:/Users/Lenovo/workspace/dave_workspace/SOLAR_TOWER_XMC/Libraries/CMSIS/Include\core_cm0.h **** /**
 748:C:/Users/Lenovo/workspace/dave_workspace/SOLAR_TOWER_XMC/Libraries/CMSIS/Include\core_cm0.h ****   \brief   Get Interrupt Priority
 749:C:/Users/Lenovo/workspace/dave_workspace/SOLAR_TOWER_XMC/Libraries/CMSIS/Include\core_cm0.h ****   \details Reads the priority of a device specific interrupt or a processor exception.
 750:C:/Users/Lenovo/workspace/dave_workspace/SOLAR_TOWER_XMC/Libraries/CMSIS/Include\core_cm0.h ****            The interrupt number can be positive to specify a device specific interrupt,
 751:C:/Users/Lenovo/workspace/dave_workspace/SOLAR_TOWER_XMC/Libraries/CMSIS/Include\core_cm0.h ****            or negative to specify a processor exception.
 752:C:/Users/Lenovo/workspace/dave_workspace/SOLAR_TOWER_XMC/Libraries/CMSIS/Include\core_cm0.h ****   \param [in]   IRQn  Interrupt number.
 753:C:/Users/Lenovo/workspace/dave_workspace/SOLAR_TOWER_XMC/Libraries/CMSIS/Include\core_cm0.h ****   \return             Interrupt Priority.
 754:C:/Users/Lenovo/workspace/dave_workspace/SOLAR_TOWER_XMC/Libraries/CMSIS/Include\core_cm0.h ****                       Value is aligned automatically to the implemented priority bits of the microc
 755:C:/Users/Lenovo/workspace/dave_workspace/SOLAR_TOWER_XMC/Libraries/CMSIS/Include\core_cm0.h ****  */
 756:C:/Users/Lenovo/workspace/dave_workspace/SOLAR_TOWER_XMC/Libraries/CMSIS/Include\core_cm0.h **** __STATIC_INLINE uint32_t __NVIC_GetPriority(IRQn_Type IRQn)
 757:C:/Users/Lenovo/workspace/dave_workspace/SOLAR_TOWER_XMC/Libraries/CMSIS/Include\core_cm0.h **** {
 758:C:/Users/Lenovo/workspace/dave_workspace/SOLAR_TOWER_XMC/Libraries/CMSIS/Include\core_cm0.h **** 
 759:C:/Users/Lenovo/workspace/dave_workspace/SOLAR_TOWER_XMC/Libraries/CMSIS/Include\core_cm0.h ****   if ((int32_t)(IRQn) >= 0)
 760:C:/Users/Lenovo/workspace/dave_workspace/SOLAR_TOWER_XMC/Libraries/CMSIS/Include\core_cm0.h ****   {
 761:C:/Users/Lenovo/workspace/dave_workspace/SOLAR_TOWER_XMC/Libraries/CMSIS/Include\core_cm0.h ****     return((uint32_t)(((NVIC->IP[ _IP_IDX(IRQn)] >> _BIT_SHIFT(IRQn) ) & (uint32_t)0xFFUL) >> (8U -
 762:C:/Users/Lenovo/workspace/dave_workspace/SOLAR_TOWER_XMC/Libraries/CMSIS/Include\core_cm0.h ****   }
 763:C:/Users/Lenovo/workspace/dave_workspace/SOLAR_TOWER_XMC/Libraries/CMSIS/Include\core_cm0.h ****   else
 764:C:/Users/Lenovo/workspace/dave_workspace/SOLAR_TOWER_XMC/Libraries/CMSIS/Include\core_cm0.h ****   {
 765:C:/Users/Lenovo/workspace/dave_workspace/SOLAR_TOWER_XMC/Libraries/CMSIS/Include\core_cm0.h ****     return((uint32_t)(((SCB->SHP[_SHP_IDX(IRQn)] >> _BIT_SHIFT(IRQn) ) & (uint32_t)0xFFUL) >> (8U -
 766:C:/Users/Lenovo/workspace/dave_workspace/SOLAR_TOWER_XMC/Libraries/CMSIS/Include\core_cm0.h ****   }
 767:C:/Users/Lenovo/workspace/dave_workspace/SOLAR_TOWER_XMC/Libraries/CMSIS/Include\core_cm0.h **** }
 768:C:/Users/Lenovo/workspace/dave_workspace/SOLAR_TOWER_XMC/Libraries/CMSIS/Include\core_cm0.h **** 
 769:C:/Users/Lenovo/workspace/dave_workspace/SOLAR_TOWER_XMC/Libraries/CMSIS/Include\core_cm0.h **** 
 770:C:/Users/Lenovo/workspace/dave_workspace/SOLAR_TOWER_XMC/Libraries/CMSIS/Include\core_cm0.h **** /**
 771:C:/Users/Lenovo/workspace/dave_workspace/SOLAR_TOWER_XMC/Libraries/CMSIS/Include\core_cm0.h ****   \brief   Encode Priority
 772:C:/Users/Lenovo/workspace/dave_workspace/SOLAR_TOWER_XMC/Libraries/CMSIS/Include\core_cm0.h ****   \details Encodes the priority for an interrupt with the given priority group,
 773:C:/Users/Lenovo/workspace/dave_workspace/SOLAR_TOWER_XMC/Libraries/CMSIS/Include\core_cm0.h ****            preemptive priority value, and subpriority value.
 774:C:/Users/Lenovo/workspace/dave_workspace/SOLAR_TOWER_XMC/Libraries/CMSIS/Include\core_cm0.h ****            In case of a conflict between priority grouping and available
 775:C:/Users/Lenovo/workspace/dave_workspace/SOLAR_TOWER_XMC/Libraries/CMSIS/Include\core_cm0.h ****            priority bits (__NVIC_PRIO_BITS), the smallest possible priority group is set.
 776:C:/Users/Lenovo/workspace/dave_workspace/SOLAR_TOWER_XMC/Libraries/CMSIS/Include\core_cm0.h ****   \param [in]     PriorityGroup  Used priority group.
 777:C:/Users/Lenovo/workspace/dave_workspace/SOLAR_TOWER_XMC/Libraries/CMSIS/Include\core_cm0.h ****   \param [in]   PreemptPriority  Preemptive priority value (starting from 0).
 778:C:/Users/Lenovo/workspace/dave_workspace/SOLAR_TOWER_XMC/Libraries/CMSIS/Include\core_cm0.h ****   \param [in]       SubPriority  Subpriority value (starting from 0).
 779:C:/Users/Lenovo/workspace/dave_workspace/SOLAR_TOWER_XMC/Libraries/CMSIS/Include\core_cm0.h ****   \return                        Encoded priority. Value can be used in the function \ref NVIC_SetP
 780:C:/Users/Lenovo/workspace/dave_workspace/SOLAR_TOWER_XMC/Libraries/CMSIS/Include\core_cm0.h ****  */
 781:C:/Users/Lenovo/workspace/dave_workspace/SOLAR_TOWER_XMC/Libraries/CMSIS/Include\core_cm0.h **** __STATIC_INLINE uint32_t NVIC_EncodePriority (uint32_t PriorityGroup, uint32_t PreemptPriority, uin
 782:C:/Users/Lenovo/workspace/dave_workspace/SOLAR_TOWER_XMC/Libraries/CMSIS/Include\core_cm0.h **** {
 783:C:/Users/Lenovo/workspace/dave_workspace/SOLAR_TOWER_XMC/Libraries/CMSIS/Include\core_cm0.h ****   uint32_t PriorityGroupTmp = (PriorityGroup & (uint32_t)0x07UL);   /* only values 0..7 are used   
 784:C:/Users/Lenovo/workspace/dave_workspace/SOLAR_TOWER_XMC/Libraries/CMSIS/Include\core_cm0.h ****   uint32_t PreemptPriorityBits;
 785:C:/Users/Lenovo/workspace/dave_workspace/SOLAR_TOWER_XMC/Libraries/CMSIS/Include\core_cm0.h ****   uint32_t SubPriorityBits;
 786:C:/Users/Lenovo/workspace/dave_workspace/SOLAR_TOWER_XMC/Libraries/CMSIS/Include\core_cm0.h **** 
 787:C:/Users/Lenovo/workspace/dave_workspace/SOLAR_TOWER_XMC/Libraries/CMSIS/Include\core_cm0.h ****   PreemptPriorityBits = ((7UL - PriorityGroupTmp) > (uint32_t)(__NVIC_PRIO_BITS)) ? (uint32_t)(__NV
 788:C:/Users/Lenovo/workspace/dave_workspace/SOLAR_TOWER_XMC/Libraries/CMSIS/Include\core_cm0.h ****   SubPriorityBits     = ((PriorityGroupTmp + (uint32_t)(__NVIC_PRIO_BITS)) < (uint32_t)7UL) ? (uint
 789:C:/Users/Lenovo/workspace/dave_workspace/SOLAR_TOWER_XMC/Libraries/CMSIS/Include\core_cm0.h **** 
 790:C:/Users/Lenovo/workspace/dave_workspace/SOLAR_TOWER_XMC/Libraries/CMSIS/Include\core_cm0.h ****   return (
 791:C:/Users/Lenovo/workspace/dave_workspace/SOLAR_TOWER_XMC/Libraries/CMSIS/Include\core_cm0.h ****            ((PreemptPriority & (uint32_t)((1UL << (PreemptPriorityBits)) - 1UL)) << SubPriorityBits
 792:C:/Users/Lenovo/workspace/dave_workspace/SOLAR_TOWER_XMC/Libraries/CMSIS/Include\core_cm0.h ****            ((SubPriority     & (uint32_t)((1UL << (SubPriorityBits    )) - 1UL)))
 793:C:/Users/Lenovo/workspace/dave_workspace/SOLAR_TOWER_XMC/Libraries/CMSIS/Include\core_cm0.h ****          );
 794:C:/Users/Lenovo/workspace/dave_workspace/SOLAR_TOWER_XMC/Libraries/CMSIS/Include\core_cm0.h **** }
 795:C:/Users/Lenovo/workspace/dave_workspace/SOLAR_TOWER_XMC/Libraries/CMSIS/Include\core_cm0.h **** 
 796:C:/Users/Lenovo/workspace/dave_workspace/SOLAR_TOWER_XMC/Libraries/CMSIS/Include\core_cm0.h **** 
 797:C:/Users/Lenovo/workspace/dave_workspace/SOLAR_TOWER_XMC/Libraries/CMSIS/Include\core_cm0.h **** /**
 798:C:/Users/Lenovo/workspace/dave_workspace/SOLAR_TOWER_XMC/Libraries/CMSIS/Include\core_cm0.h ****   \brief   Decode Priority
 799:C:/Users/Lenovo/workspace/dave_workspace/SOLAR_TOWER_XMC/Libraries/CMSIS/Include\core_cm0.h ****   \details Decodes an interrupt priority value with a given priority group to
 800:C:/Users/Lenovo/workspace/dave_workspace/SOLAR_TOWER_XMC/Libraries/CMSIS/Include\core_cm0.h ****            preemptive priority value and subpriority value.
 801:C:/Users/Lenovo/workspace/dave_workspace/SOLAR_TOWER_XMC/Libraries/CMSIS/Include\core_cm0.h ****            In case of a conflict between priority grouping and available
 802:C:/Users/Lenovo/workspace/dave_workspace/SOLAR_TOWER_XMC/Libraries/CMSIS/Include\core_cm0.h ****            priority bits (__NVIC_PRIO_BITS) the smallest possible priority group is set.
 803:C:/Users/Lenovo/workspace/dave_workspace/SOLAR_TOWER_XMC/Libraries/CMSIS/Include\core_cm0.h ****   \param [in]         Priority   Priority value, which can be retrieved with the function \ref NVIC
 804:C:/Users/Lenovo/workspace/dave_workspace/SOLAR_TOWER_XMC/Libraries/CMSIS/Include\core_cm0.h ****   \param [in]     PriorityGroup  Used priority group.
 805:C:/Users/Lenovo/workspace/dave_workspace/SOLAR_TOWER_XMC/Libraries/CMSIS/Include\core_cm0.h ****   \param [out] pPreemptPriority  Preemptive priority value (starting from 0).
 806:C:/Users/Lenovo/workspace/dave_workspace/SOLAR_TOWER_XMC/Libraries/CMSIS/Include\core_cm0.h ****   \param [out]     pSubPriority  Subpriority value (starting from 0).
 807:C:/Users/Lenovo/workspace/dave_workspace/SOLAR_TOWER_XMC/Libraries/CMSIS/Include\core_cm0.h ****  */
 808:C:/Users/Lenovo/workspace/dave_workspace/SOLAR_TOWER_XMC/Libraries/CMSIS/Include\core_cm0.h **** __STATIC_INLINE void NVIC_DecodePriority (uint32_t Priority, uint32_t PriorityGroup, uint32_t* cons
 809:C:/Users/Lenovo/workspace/dave_workspace/SOLAR_TOWER_XMC/Libraries/CMSIS/Include\core_cm0.h **** {
 810:C:/Users/Lenovo/workspace/dave_workspace/SOLAR_TOWER_XMC/Libraries/CMSIS/Include\core_cm0.h ****   uint32_t PriorityGroupTmp = (PriorityGroup & (uint32_t)0x07UL);   /* only values 0..7 are used   
 811:C:/Users/Lenovo/workspace/dave_workspace/SOLAR_TOWER_XMC/Libraries/CMSIS/Include\core_cm0.h ****   uint32_t PreemptPriorityBits;
 812:C:/Users/Lenovo/workspace/dave_workspace/SOLAR_TOWER_XMC/Libraries/CMSIS/Include\core_cm0.h ****   uint32_t SubPriorityBits;
 813:C:/Users/Lenovo/workspace/dave_workspace/SOLAR_TOWER_XMC/Libraries/CMSIS/Include\core_cm0.h **** 
 814:C:/Users/Lenovo/workspace/dave_workspace/SOLAR_TOWER_XMC/Libraries/CMSIS/Include\core_cm0.h ****   PreemptPriorityBits = ((7UL - PriorityGroupTmp) > (uint32_t)(__NVIC_PRIO_BITS)) ? (uint32_t)(__NV
 815:C:/Users/Lenovo/workspace/dave_workspace/SOLAR_TOWER_XMC/Libraries/CMSIS/Include\core_cm0.h ****   SubPriorityBits     = ((PriorityGroupTmp + (uint32_t)(__NVIC_PRIO_BITS)) < (uint32_t)7UL) ? (uint
 816:C:/Users/Lenovo/workspace/dave_workspace/SOLAR_TOWER_XMC/Libraries/CMSIS/Include\core_cm0.h **** 
 817:C:/Users/Lenovo/workspace/dave_workspace/SOLAR_TOWER_XMC/Libraries/CMSIS/Include\core_cm0.h ****   *pPreemptPriority = (Priority >> SubPriorityBits) & (uint32_t)((1UL << (PreemptPriorityBits)) - 1
 818:C:/Users/Lenovo/workspace/dave_workspace/SOLAR_TOWER_XMC/Libraries/CMSIS/Include\core_cm0.h ****   *pSubPriority     = (Priority                   ) & (uint32_t)((1UL << (SubPriorityBits    )) - 1
 819:C:/Users/Lenovo/workspace/dave_workspace/SOLAR_TOWER_XMC/Libraries/CMSIS/Include\core_cm0.h **** }
 820:C:/Users/Lenovo/workspace/dave_workspace/SOLAR_TOWER_XMC/Libraries/CMSIS/Include\core_cm0.h **** 
 821:C:/Users/Lenovo/workspace/dave_workspace/SOLAR_TOWER_XMC/Libraries/CMSIS/Include\core_cm0.h **** 
 822:C:/Users/Lenovo/workspace/dave_workspace/SOLAR_TOWER_XMC/Libraries/CMSIS/Include\core_cm0.h **** 
 823:C:/Users/Lenovo/workspace/dave_workspace/SOLAR_TOWER_XMC/Libraries/CMSIS/Include\core_cm0.h **** /**
 824:C:/Users/Lenovo/workspace/dave_workspace/SOLAR_TOWER_XMC/Libraries/CMSIS/Include\core_cm0.h ****   \brief   Set Interrupt Vector
 825:C:/Users/Lenovo/workspace/dave_workspace/SOLAR_TOWER_XMC/Libraries/CMSIS/Include\core_cm0.h ****   \details Sets an interrupt vector in SRAM based interrupt vector table.
 826:C:/Users/Lenovo/workspace/dave_workspace/SOLAR_TOWER_XMC/Libraries/CMSIS/Include\core_cm0.h ****            The interrupt number can be positive to specify a device specific interrupt,
 827:C:/Users/Lenovo/workspace/dave_workspace/SOLAR_TOWER_XMC/Libraries/CMSIS/Include\core_cm0.h ****            or negative to specify a processor exception.
 828:C:/Users/Lenovo/workspace/dave_workspace/SOLAR_TOWER_XMC/Libraries/CMSIS/Include\core_cm0.h ****            Address 0 must be mapped to SRAM.
 829:C:/Users/Lenovo/workspace/dave_workspace/SOLAR_TOWER_XMC/Libraries/CMSIS/Include\core_cm0.h ****   \param [in]   IRQn      Interrupt number
 830:C:/Users/Lenovo/workspace/dave_workspace/SOLAR_TOWER_XMC/Libraries/CMSIS/Include\core_cm0.h ****   \param [in]   vector    Address of interrupt handler function
 831:C:/Users/Lenovo/workspace/dave_workspace/SOLAR_TOWER_XMC/Libraries/CMSIS/Include\core_cm0.h ****  */
 832:C:/Users/Lenovo/workspace/dave_workspace/SOLAR_TOWER_XMC/Libraries/CMSIS/Include\core_cm0.h **** __STATIC_INLINE void __NVIC_SetVector(IRQn_Type IRQn, uint32_t vector)
 833:C:/Users/Lenovo/workspace/dave_workspace/SOLAR_TOWER_XMC/Libraries/CMSIS/Include\core_cm0.h **** {
 834:C:/Users/Lenovo/workspace/dave_workspace/SOLAR_TOWER_XMC/Libraries/CMSIS/Include\core_cm0.h ****   uint32_t vectors = 0x0U;
 835:C:/Users/Lenovo/workspace/dave_workspace/SOLAR_TOWER_XMC/Libraries/CMSIS/Include\core_cm0.h ****   (* (int *) (vectors + ((int32_t)IRQn + NVIC_USER_IRQ_OFFSET) * 4)) = vector;
 836:C:/Users/Lenovo/workspace/dave_workspace/SOLAR_TOWER_XMC/Libraries/CMSIS/Include\core_cm0.h ****   /* ARM Application Note 321 states that the M0 does not require the architectural barrier */
 837:C:/Users/Lenovo/workspace/dave_workspace/SOLAR_TOWER_XMC/Libraries/CMSIS/Include\core_cm0.h **** }
 838:C:/Users/Lenovo/workspace/dave_workspace/SOLAR_TOWER_XMC/Libraries/CMSIS/Include\core_cm0.h **** 
 839:C:/Users/Lenovo/workspace/dave_workspace/SOLAR_TOWER_XMC/Libraries/CMSIS/Include\core_cm0.h **** 
 840:C:/Users/Lenovo/workspace/dave_workspace/SOLAR_TOWER_XMC/Libraries/CMSIS/Include\core_cm0.h **** /**
 841:C:/Users/Lenovo/workspace/dave_workspace/SOLAR_TOWER_XMC/Libraries/CMSIS/Include\core_cm0.h ****   \brief   Get Interrupt Vector
 842:C:/Users/Lenovo/workspace/dave_workspace/SOLAR_TOWER_XMC/Libraries/CMSIS/Include\core_cm0.h ****   \details Reads an interrupt vector from interrupt vector table.
 843:C:/Users/Lenovo/workspace/dave_workspace/SOLAR_TOWER_XMC/Libraries/CMSIS/Include\core_cm0.h ****            The interrupt number can be positive to specify a device specific interrupt,
 844:C:/Users/Lenovo/workspace/dave_workspace/SOLAR_TOWER_XMC/Libraries/CMSIS/Include\core_cm0.h ****            or negative to specify a processor exception.
 845:C:/Users/Lenovo/workspace/dave_workspace/SOLAR_TOWER_XMC/Libraries/CMSIS/Include\core_cm0.h ****   \param [in]   IRQn      Interrupt number.
 846:C:/Users/Lenovo/workspace/dave_workspace/SOLAR_TOWER_XMC/Libraries/CMSIS/Include\core_cm0.h ****   \return                 Address of interrupt handler function
 847:C:/Users/Lenovo/workspace/dave_workspace/SOLAR_TOWER_XMC/Libraries/CMSIS/Include\core_cm0.h ****  */
 848:C:/Users/Lenovo/workspace/dave_workspace/SOLAR_TOWER_XMC/Libraries/CMSIS/Include\core_cm0.h **** __STATIC_INLINE uint32_t __NVIC_GetVector(IRQn_Type IRQn)
 849:C:/Users/Lenovo/workspace/dave_workspace/SOLAR_TOWER_XMC/Libraries/CMSIS/Include\core_cm0.h **** {
 850:C:/Users/Lenovo/workspace/dave_workspace/SOLAR_TOWER_XMC/Libraries/CMSIS/Include\core_cm0.h ****   uint32_t vectors = 0x0U;
 851:C:/Users/Lenovo/workspace/dave_workspace/SOLAR_TOWER_XMC/Libraries/CMSIS/Include\core_cm0.h ****   return (uint32_t)(* (int *) (vectors + ((int32_t)IRQn + NVIC_USER_IRQ_OFFSET) * 4));
 852:C:/Users/Lenovo/workspace/dave_workspace/SOLAR_TOWER_XMC/Libraries/CMSIS/Include\core_cm0.h **** }
 853:C:/Users/Lenovo/workspace/dave_workspace/SOLAR_TOWER_XMC/Libraries/CMSIS/Include\core_cm0.h **** 
 854:C:/Users/Lenovo/workspace/dave_workspace/SOLAR_TOWER_XMC/Libraries/CMSIS/Include\core_cm0.h **** 
 855:C:/Users/Lenovo/workspace/dave_workspace/SOLAR_TOWER_XMC/Libraries/CMSIS/Include\core_cm0.h **** /**
 856:C:/Users/Lenovo/workspace/dave_workspace/SOLAR_TOWER_XMC/Libraries/CMSIS/Include\core_cm0.h ****   \brief   System Reset
 857:C:/Users/Lenovo/workspace/dave_workspace/SOLAR_TOWER_XMC/Libraries/CMSIS/Include\core_cm0.h ****   \details Initiates a system reset request to reset the MCU.
 858:C:/Users/Lenovo/workspace/dave_workspace/SOLAR_TOWER_XMC/Libraries/CMSIS/Include\core_cm0.h ****  */
 859:C:/Users/Lenovo/workspace/dave_workspace/SOLAR_TOWER_XMC/Libraries/CMSIS/Include\core_cm0.h **** __NO_RETURN __STATIC_INLINE void __NVIC_SystemReset(void)
 860:C:/Users/Lenovo/workspace/dave_workspace/SOLAR_TOWER_XMC/Libraries/CMSIS/Include\core_cm0.h **** {
 861:C:/Users/Lenovo/workspace/dave_workspace/SOLAR_TOWER_XMC/Libraries/CMSIS/Include\core_cm0.h ****   __DSB();                                                          /* Ensure all outstanding memor
 862:C:/Users/Lenovo/workspace/dave_workspace/SOLAR_TOWER_XMC/Libraries/CMSIS/Include\core_cm0.h ****                                                                        buffered write are completed
 863:C:/Users/Lenovo/workspace/dave_workspace/SOLAR_TOWER_XMC/Libraries/CMSIS/Include\core_cm0.h ****   SCB->AIRCR  = ((0x5FAUL << SCB_AIRCR_VECTKEY_Pos) |
 864:C:/Users/Lenovo/workspace/dave_workspace/SOLAR_TOWER_XMC/Libraries/CMSIS/Include\core_cm0.h ****                  SCB_AIRCR_SYSRESETREQ_Msk);
 865:C:/Users/Lenovo/workspace/dave_workspace/SOLAR_TOWER_XMC/Libraries/CMSIS/Include\core_cm0.h ****   __DSB();                                                          /* Ensure completion of memory 
 866:C:/Users/Lenovo/workspace/dave_workspace/SOLAR_TOWER_XMC/Libraries/CMSIS/Include\core_cm0.h **** 
 867:C:/Users/Lenovo/workspace/dave_workspace/SOLAR_TOWER_XMC/Libraries/CMSIS/Include\core_cm0.h ****   for(;;)                                                           /* wait until reset */
 868:C:/Users/Lenovo/workspace/dave_workspace/SOLAR_TOWER_XMC/Libraries/CMSIS/Include\core_cm0.h ****   {
 869:C:/Users/Lenovo/workspace/dave_workspace/SOLAR_TOWER_XMC/Libraries/CMSIS/Include\core_cm0.h ****     __NOP();
 870:C:/Users/Lenovo/workspace/dave_workspace/SOLAR_TOWER_XMC/Libraries/CMSIS/Include\core_cm0.h ****   }
 871:C:/Users/Lenovo/workspace/dave_workspace/SOLAR_TOWER_XMC/Libraries/CMSIS/Include\core_cm0.h **** }
 872:C:/Users/Lenovo/workspace/dave_workspace/SOLAR_TOWER_XMC/Libraries/CMSIS/Include\core_cm0.h **** 
 873:C:/Users/Lenovo/workspace/dave_workspace/SOLAR_TOWER_XMC/Libraries/CMSIS/Include\core_cm0.h **** /*@} end of CMSIS_Core_NVICFunctions */
 874:C:/Users/Lenovo/workspace/dave_workspace/SOLAR_TOWER_XMC/Libraries/CMSIS/Include\core_cm0.h **** 
 875:C:/Users/Lenovo/workspace/dave_workspace/SOLAR_TOWER_XMC/Libraries/CMSIS/Include\core_cm0.h **** 
 876:C:/Users/Lenovo/workspace/dave_workspace/SOLAR_TOWER_XMC/Libraries/CMSIS/Include\core_cm0.h **** /* ##########################  FPU functions  #################################### */
 877:C:/Users/Lenovo/workspace/dave_workspace/SOLAR_TOWER_XMC/Libraries/CMSIS/Include\core_cm0.h **** /**
 878:C:/Users/Lenovo/workspace/dave_workspace/SOLAR_TOWER_XMC/Libraries/CMSIS/Include\core_cm0.h ****   \ingroup  CMSIS_Core_FunctionInterface
 879:C:/Users/Lenovo/workspace/dave_workspace/SOLAR_TOWER_XMC/Libraries/CMSIS/Include\core_cm0.h ****   \defgroup CMSIS_Core_FpuFunctions FPU Functions
 880:C:/Users/Lenovo/workspace/dave_workspace/SOLAR_TOWER_XMC/Libraries/CMSIS/Include\core_cm0.h ****   \brief    Function that provides FPU type.
 881:C:/Users/Lenovo/workspace/dave_workspace/SOLAR_TOWER_XMC/Libraries/CMSIS/Include\core_cm0.h ****   @{
 882:C:/Users/Lenovo/workspace/dave_workspace/SOLAR_TOWER_XMC/Libraries/CMSIS/Include\core_cm0.h ****  */
 883:C:/Users/Lenovo/workspace/dave_workspace/SOLAR_TOWER_XMC/Libraries/CMSIS/Include\core_cm0.h **** 
 884:C:/Users/Lenovo/workspace/dave_workspace/SOLAR_TOWER_XMC/Libraries/CMSIS/Include\core_cm0.h **** /**
 885:C:/Users/Lenovo/workspace/dave_workspace/SOLAR_TOWER_XMC/Libraries/CMSIS/Include\core_cm0.h ****   \brief   get FPU type
 886:C:/Users/Lenovo/workspace/dave_workspace/SOLAR_TOWER_XMC/Libraries/CMSIS/Include\core_cm0.h ****   \details returns the FPU type
 887:C:/Users/Lenovo/workspace/dave_workspace/SOLAR_TOWER_XMC/Libraries/CMSIS/Include\core_cm0.h ****   \returns
 888:C:/Users/Lenovo/workspace/dave_workspace/SOLAR_TOWER_XMC/Libraries/CMSIS/Include\core_cm0.h ****    - \b  0: No FPU
 889:C:/Users/Lenovo/workspace/dave_workspace/SOLAR_TOWER_XMC/Libraries/CMSIS/Include\core_cm0.h ****    - \b  1: Single precision FPU
 890:C:/Users/Lenovo/workspace/dave_workspace/SOLAR_TOWER_XMC/Libraries/CMSIS/Include\core_cm0.h ****    - \b  2: Double + Single precision FPU
 891:C:/Users/Lenovo/workspace/dave_workspace/SOLAR_TOWER_XMC/Libraries/CMSIS/Include\core_cm0.h ****  */
 892:C:/Users/Lenovo/workspace/dave_workspace/SOLAR_TOWER_XMC/Libraries/CMSIS/Include\core_cm0.h **** __STATIC_INLINE uint32_t SCB_GetFPUType(void)
 893:C:/Users/Lenovo/workspace/dave_workspace/SOLAR_TOWER_XMC/Libraries/CMSIS/Include\core_cm0.h **** {
 894:C:/Users/Lenovo/workspace/dave_workspace/SOLAR_TOWER_XMC/Libraries/CMSIS/Include\core_cm0.h ****     return 0U;           /* No FPU */
 895:C:/Users/Lenovo/workspace/dave_workspace/SOLAR_TOWER_XMC/Libraries/CMSIS/Include\core_cm0.h **** }
 896:C:/Users/Lenovo/workspace/dave_workspace/SOLAR_TOWER_XMC/Libraries/CMSIS/Include\core_cm0.h **** 
 897:C:/Users/Lenovo/workspace/dave_workspace/SOLAR_TOWER_XMC/Libraries/CMSIS/Include\core_cm0.h **** 
 898:C:/Users/Lenovo/workspace/dave_workspace/SOLAR_TOWER_XMC/Libraries/CMSIS/Include\core_cm0.h **** /*@} end of CMSIS_Core_FpuFunctions */
 899:C:/Users/Lenovo/workspace/dave_workspace/SOLAR_TOWER_XMC/Libraries/CMSIS/Include\core_cm0.h **** 
 900:C:/Users/Lenovo/workspace/dave_workspace/SOLAR_TOWER_XMC/Libraries/CMSIS/Include\core_cm0.h **** 
 901:C:/Users/Lenovo/workspace/dave_workspace/SOLAR_TOWER_XMC/Libraries/CMSIS/Include\core_cm0.h **** 
 902:C:/Users/Lenovo/workspace/dave_workspace/SOLAR_TOWER_XMC/Libraries/CMSIS/Include\core_cm0.h **** /* ##################################    SysTick function  ########################################
 903:C:/Users/Lenovo/workspace/dave_workspace/SOLAR_TOWER_XMC/Libraries/CMSIS/Include\core_cm0.h **** /**
 904:C:/Users/Lenovo/workspace/dave_workspace/SOLAR_TOWER_XMC/Libraries/CMSIS/Include\core_cm0.h ****   \ingroup  CMSIS_Core_FunctionInterface
 905:C:/Users/Lenovo/workspace/dave_workspace/SOLAR_TOWER_XMC/Libraries/CMSIS/Include\core_cm0.h ****   \defgroup CMSIS_Core_SysTickFunctions SysTick Functions
 906:C:/Users/Lenovo/workspace/dave_workspace/SOLAR_TOWER_XMC/Libraries/CMSIS/Include\core_cm0.h ****   \brief    Functions that configure the System.
 907:C:/Users/Lenovo/workspace/dave_workspace/SOLAR_TOWER_XMC/Libraries/CMSIS/Include\core_cm0.h ****   @{
 908:C:/Users/Lenovo/workspace/dave_workspace/SOLAR_TOWER_XMC/Libraries/CMSIS/Include\core_cm0.h ****  */
 909:C:/Users/Lenovo/workspace/dave_workspace/SOLAR_TOWER_XMC/Libraries/CMSIS/Include\core_cm0.h **** 
 910:C:/Users/Lenovo/workspace/dave_workspace/SOLAR_TOWER_XMC/Libraries/CMSIS/Include\core_cm0.h **** #if defined (__Vendor_SysTickConfig) && (__Vendor_SysTickConfig == 0U)
 911:C:/Users/Lenovo/workspace/dave_workspace/SOLAR_TOWER_XMC/Libraries/CMSIS/Include\core_cm0.h **** 
 912:C:/Users/Lenovo/workspace/dave_workspace/SOLAR_TOWER_XMC/Libraries/CMSIS/Include\core_cm0.h **** /**
 913:C:/Users/Lenovo/workspace/dave_workspace/SOLAR_TOWER_XMC/Libraries/CMSIS/Include\core_cm0.h ****   \brief   System Tick Configuration
 914:C:/Users/Lenovo/workspace/dave_workspace/SOLAR_TOWER_XMC/Libraries/CMSIS/Include\core_cm0.h ****   \details Initializes the System Timer and its interrupt, and starts the System Tick Timer.
 915:C:/Users/Lenovo/workspace/dave_workspace/SOLAR_TOWER_XMC/Libraries/CMSIS/Include\core_cm0.h ****            Counter is in free running mode to generate periodic interrupts.
 916:C:/Users/Lenovo/workspace/dave_workspace/SOLAR_TOWER_XMC/Libraries/CMSIS/Include\core_cm0.h ****   \param [in]  ticks  Number of ticks between two interrupts.
 917:C:/Users/Lenovo/workspace/dave_workspace/SOLAR_TOWER_XMC/Libraries/CMSIS/Include\core_cm0.h ****   \return          0  Function succeeded.
 918:C:/Users/Lenovo/workspace/dave_workspace/SOLAR_TOWER_XMC/Libraries/CMSIS/Include\core_cm0.h ****   \return          1  Function failed.
 919:C:/Users/Lenovo/workspace/dave_workspace/SOLAR_TOWER_XMC/Libraries/CMSIS/Include\core_cm0.h ****   \note    When the variable <b>__Vendor_SysTickConfig</b> is set to 1, then the
 920:C:/Users/Lenovo/workspace/dave_workspace/SOLAR_TOWER_XMC/Libraries/CMSIS/Include\core_cm0.h ****            function <b>SysTick_Config</b> is not included. In this case, the file <b><i>device</i>.
 921:C:/Users/Lenovo/workspace/dave_workspace/SOLAR_TOWER_XMC/Libraries/CMSIS/Include\core_cm0.h ****            must contain a vendor-specific implementation of this function.
 922:C:/Users/Lenovo/workspace/dave_workspace/SOLAR_TOWER_XMC/Libraries/CMSIS/Include\core_cm0.h ****  */
 923:C:/Users/Lenovo/workspace/dave_workspace/SOLAR_TOWER_XMC/Libraries/CMSIS/Include\core_cm0.h **** __STATIC_INLINE uint32_t SysTick_Config(uint32_t ticks)
 924:C:/Users/Lenovo/workspace/dave_workspace/SOLAR_TOWER_XMC/Libraries/CMSIS/Include\core_cm0.h **** {
 164              	 .loc 1 924 0
 165              	 .cfi_startproc
 166 0000 80B5     	 push {r7,lr}
 167              	.LCFI3:
 168              	 .cfi_def_cfa_offset 8
 169              	 .cfi_offset 7,-8
 170              	 .cfi_offset 14,-4
 171 0002 82B0     	 sub sp,sp,#8
 172              	.LCFI4:
 173              	 .cfi_def_cfa_offset 16
 174 0004 00AF     	 add r7,sp,#0
 175              	.LCFI5:
 176              	 .cfi_def_cfa_register 7
 177 0006 7860     	 str r0,[r7,#4]
 925:C:/Users/Lenovo/workspace/dave_workspace/SOLAR_TOWER_XMC/Libraries/CMSIS/Include\core_cm0.h ****   if ((ticks - 1UL) > SysTick_LOAD_RELOAD_Msk)
 178              	 .loc 1 925 0
 179 0008 7B68     	 ldr r3,[r7,#4]
 180 000a 013B     	 sub r3,r3,#1
 181 000c 0C4A     	 ldr r2,.L9
 182 000e 9342     	 cmp r3,r2
 183 0010 01D9     	 bls .L7
 926:C:/Users/Lenovo/workspace/dave_workspace/SOLAR_TOWER_XMC/Libraries/CMSIS/Include\core_cm0.h ****   {
 927:C:/Users/Lenovo/workspace/dave_workspace/SOLAR_TOWER_XMC/Libraries/CMSIS/Include\core_cm0.h ****     return (1UL);                                                   /* Reload value impossible */
 184              	 .loc 1 927 0
 185 0012 0123     	 mov r3,#1
 186 0014 10E0     	 b .L8
 187              	.L7:
 928:C:/Users/Lenovo/workspace/dave_workspace/SOLAR_TOWER_XMC/Libraries/CMSIS/Include\core_cm0.h ****   }
 929:C:/Users/Lenovo/workspace/dave_workspace/SOLAR_TOWER_XMC/Libraries/CMSIS/Include\core_cm0.h **** 
 930:C:/Users/Lenovo/workspace/dave_workspace/SOLAR_TOWER_XMC/Libraries/CMSIS/Include\core_cm0.h ****   SysTick->LOAD  = (uint32_t)(ticks - 1UL);                         /* set reload register */
 188              	 .loc 1 930 0
 189 0016 0B4B     	 ldr r3,.L9+4
 190 0018 7A68     	 ldr r2,[r7,#4]
 191 001a 013A     	 sub r2,r2,#1
 192 001c 5A60     	 str r2,[r3,#4]
 931:C:/Users/Lenovo/workspace/dave_workspace/SOLAR_TOWER_XMC/Libraries/CMSIS/Include\core_cm0.h ****   NVIC_SetPriority (SysTick_IRQn, (1UL << __NVIC_PRIO_BITS) - 1UL); /* set Priority for Systick Int
 193              	 .loc 1 931 0
 194 001e 0123     	 mov r3,#1
 195 0020 5B42     	 neg r3,r3
 196 0022 181C     	 mov r0,r3
 197 0024 0321     	 mov r1,#3
 198 0026 FFF7FEFF 	 bl __NVIC_SetPriority
 932:C:/Users/Lenovo/workspace/dave_workspace/SOLAR_TOWER_XMC/Libraries/CMSIS/Include\core_cm0.h ****   SysTick->VAL   = 0UL;                                             /* Load the SysTick Counter Val
 199              	 .loc 1 932 0
 200 002a 064B     	 ldr r3,.L9+4
 201 002c 0022     	 mov r2,#0
 202 002e 9A60     	 str r2,[r3,#8]
 933:C:/Users/Lenovo/workspace/dave_workspace/SOLAR_TOWER_XMC/Libraries/CMSIS/Include\core_cm0.h ****   SysTick->CTRL  = SysTick_CTRL_CLKSOURCE_Msk |
 203              	 .loc 1 933 0
 204 0030 044B     	 ldr r3,.L9+4
 205 0032 0722     	 mov r2,#7
 206 0034 1A60     	 str r2,[r3]
 934:C:/Users/Lenovo/workspace/dave_workspace/SOLAR_TOWER_XMC/Libraries/CMSIS/Include\core_cm0.h ****                    SysTick_CTRL_TICKINT_Msk   |
 935:C:/Users/Lenovo/workspace/dave_workspace/SOLAR_TOWER_XMC/Libraries/CMSIS/Include\core_cm0.h ****                    SysTick_CTRL_ENABLE_Msk;                         /* Enable SysTick IRQ and SysTi
 936:C:/Users/Lenovo/workspace/dave_workspace/SOLAR_TOWER_XMC/Libraries/CMSIS/Include\core_cm0.h ****   return (0UL);                                                     /* Function successful */
 207              	 .loc 1 936 0
 208 0036 0023     	 mov r3,#0
 209              	.L8:
 937:C:/Users/Lenovo/workspace/dave_workspace/SOLAR_TOWER_XMC/Libraries/CMSIS/Include\core_cm0.h **** }
 210              	 .loc 1 937 0
 211 0038 181C     	 mov r0,r3
 212 003a BD46     	 mov sp,r7
 213 003c 02B0     	 add sp,sp,#8
 214              	 
 215 003e 80BD     	 pop {r7,pc}
 216              	.L10:
 217              	 .align 2
 218              	.L9:
 219 0040 FFFFFF00 	 .word 16777215
 220 0044 10E000E0 	 .word -536813552
 221              	 .cfi_endproc
 222              	.LFE41:
 224              	 .section .text.XMC_GPIO_SetOutputLevel,"ax",%progbits
 225              	 .align 2
 226              	 .code 16
 227              	 .thumb_func
 229              	XMC_GPIO_SetOutputLevel:
 230              	.LFB48:
 231              	 .file 2 "C:/Users/Lenovo/workspace/dave_workspace/SOLAR_TOWER_XMC/Libraries/XMCLib/inc/xmc_gpio.h"
   1:C:/Users/Lenovo/workspace/dave_workspace/SOLAR_TOWER_XMC/Libraries/XMCLib/inc\xmc_gpio.h **** /**
   2:C:/Users/Lenovo/workspace/dave_workspace/SOLAR_TOWER_XMC/Libraries/XMCLib/inc\xmc_gpio.h ****  * @file xmc_gpio.h
   3:C:/Users/Lenovo/workspace/dave_workspace/SOLAR_TOWER_XMC/Libraries/XMCLib/inc\xmc_gpio.h ****  * @date 2015-06-20
   4:C:/Users/Lenovo/workspace/dave_workspace/SOLAR_TOWER_XMC/Libraries/XMCLib/inc\xmc_gpio.h ****  *
   5:C:/Users/Lenovo/workspace/dave_workspace/SOLAR_TOWER_XMC/Libraries/XMCLib/inc\xmc_gpio.h ****  * @cond
   6:C:/Users/Lenovo/workspace/dave_workspace/SOLAR_TOWER_XMC/Libraries/XMCLib/inc\xmc_gpio.h ****  **************************************************************************************************
   7:C:/Users/Lenovo/workspace/dave_workspace/SOLAR_TOWER_XMC/Libraries/XMCLib/inc\xmc_gpio.h ****  * XMClib v2.1.24 - XMC Peripheral Driver Library 
   8:C:/Users/Lenovo/workspace/dave_workspace/SOLAR_TOWER_XMC/Libraries/XMCLib/inc\xmc_gpio.h ****  *
   9:C:/Users/Lenovo/workspace/dave_workspace/SOLAR_TOWER_XMC/Libraries/XMCLib/inc\xmc_gpio.h ****  * Copyright (c) 2015-2019, Infineon Technologies AG
  10:C:/Users/Lenovo/workspace/dave_workspace/SOLAR_TOWER_XMC/Libraries/XMCLib/inc\xmc_gpio.h ****  * All rights reserved.                        
  11:C:/Users/Lenovo/workspace/dave_workspace/SOLAR_TOWER_XMC/Libraries/XMCLib/inc\xmc_gpio.h ****  *                                             
  12:C:/Users/Lenovo/workspace/dave_workspace/SOLAR_TOWER_XMC/Libraries/XMCLib/inc\xmc_gpio.h ****  * Redistribution and use in source and binary forms, with or without modification,are permitted pr
  13:C:/Users/Lenovo/workspace/dave_workspace/SOLAR_TOWER_XMC/Libraries/XMCLib/inc\xmc_gpio.h ****  * following conditions are met:   
  14:C:/Users/Lenovo/workspace/dave_workspace/SOLAR_TOWER_XMC/Libraries/XMCLib/inc\xmc_gpio.h ****  *                                                                              
  15:C:/Users/Lenovo/workspace/dave_workspace/SOLAR_TOWER_XMC/Libraries/XMCLib/inc\xmc_gpio.h ****  * Redistributions of source code must retain the above copyright notice, this list of conditions a
  16:C:/Users/Lenovo/workspace/dave_workspace/SOLAR_TOWER_XMC/Libraries/XMCLib/inc\xmc_gpio.h ****  * disclaimer.                        
  17:C:/Users/Lenovo/workspace/dave_workspace/SOLAR_TOWER_XMC/Libraries/XMCLib/inc\xmc_gpio.h ****  * 
  18:C:/Users/Lenovo/workspace/dave_workspace/SOLAR_TOWER_XMC/Libraries/XMCLib/inc\xmc_gpio.h ****  * Redistributions in binary form must reproduce the above copyright notice, this list of condition
  19:C:/Users/Lenovo/workspace/dave_workspace/SOLAR_TOWER_XMC/Libraries/XMCLib/inc\xmc_gpio.h ****  * disclaimer in the documentation and/or other materials provided with the distribution.          
  20:C:/Users/Lenovo/workspace/dave_workspace/SOLAR_TOWER_XMC/Libraries/XMCLib/inc\xmc_gpio.h ****  * 
  21:C:/Users/Lenovo/workspace/dave_workspace/SOLAR_TOWER_XMC/Libraries/XMCLib/inc\xmc_gpio.h ****  * Neither the name of the copyright holders nor the names of its contributors may be used to endor
  22:C:/Users/Lenovo/workspace/dave_workspace/SOLAR_TOWER_XMC/Libraries/XMCLib/inc\xmc_gpio.h ****  * products derived from this software without specific prior written permission.                  
  23:C:/Users/Lenovo/workspace/dave_workspace/SOLAR_TOWER_XMC/Libraries/XMCLib/inc\xmc_gpio.h ****  *                                                                              
  24:C:/Users/Lenovo/workspace/dave_workspace/SOLAR_TOWER_XMC/Libraries/XMCLib/inc\xmc_gpio.h ****  * THIS SOFTWARE IS PROVIDED BY THE COPYRIGHT HOLDERS AND CONTRIBUTORS "AS IS" AND ANY EXPRESS OR I
  25:C:/Users/Lenovo/workspace/dave_workspace/SOLAR_TOWER_XMC/Libraries/XMCLib/inc\xmc_gpio.h ****  * INCLUDING, BUT NOT LIMITED TO, THE IMPLIED WARRANTIES OF MERCHANTABILITY AND FITNESS FOR A PARTI
  26:C:/Users/Lenovo/workspace/dave_workspace/SOLAR_TOWER_XMC/Libraries/XMCLib/inc\xmc_gpio.h ****  * DISCLAIMED. IN NO EVENT SHALL THE COPYRIGHT HOLDER OR CONTRIBUTORS BE LIABLE  FOR ANY DIRECT, IN
  27:C:/Users/Lenovo/workspace/dave_workspace/SOLAR_TOWER_XMC/Libraries/XMCLib/inc\xmc_gpio.h ****  * SPECIAL, EXEMPLARY, OR CONSEQUENTIAL DAMAGES (INCLUDING, BUT NOT LIMITED TO, PROCUREMENT OF SUBS
  28:C:/Users/Lenovo/workspace/dave_workspace/SOLAR_TOWER_XMC/Libraries/XMCLib/inc\xmc_gpio.h ****  * SERVICES; LOSS OF USE, DATA, OR PROFITS; OR BUSINESS INTERRUPTION) HOWEVER CAUSED AND ON ANY THE
  29:C:/Users/Lenovo/workspace/dave_workspace/SOLAR_TOWER_XMC/Libraries/XMCLib/inc\xmc_gpio.h ****  * WHETHER IN CONTRACT, STRICT LIABILITY,OR TORT (INCLUDING NEGLIGENCE OR OTHERWISE) ARISING IN ANY
  30:C:/Users/Lenovo/workspace/dave_workspace/SOLAR_TOWER_XMC/Libraries/XMCLib/inc\xmc_gpio.h ****  * OF THIS SOFTWARE, EVEN IF ADVISED OF THE POSSIBILITY OF SUCH DAMAGE.                            
  31:C:/Users/Lenovo/workspace/dave_workspace/SOLAR_TOWER_XMC/Libraries/XMCLib/inc\xmc_gpio.h ****  *                                                                              
  32:C:/Users/Lenovo/workspace/dave_workspace/SOLAR_TOWER_XMC/Libraries/XMCLib/inc\xmc_gpio.h ****  * To improve the quality of the software, users are encouraged to share modifications, enhancement
  33:C:/Users/Lenovo/workspace/dave_workspace/SOLAR_TOWER_XMC/Libraries/XMCLib/inc\xmc_gpio.h ****  * Infineon Technologies AG dave@infineon.com).                                                    
  34:C:/Users/Lenovo/workspace/dave_workspace/SOLAR_TOWER_XMC/Libraries/XMCLib/inc\xmc_gpio.h ****  **************************************************************************************************
  35:C:/Users/Lenovo/workspace/dave_workspace/SOLAR_TOWER_XMC/Libraries/XMCLib/inc\xmc_gpio.h ****  *
  36:C:/Users/Lenovo/workspace/dave_workspace/SOLAR_TOWER_XMC/Libraries/XMCLib/inc\xmc_gpio.h ****  * Change History
  37:C:/Users/Lenovo/workspace/dave_workspace/SOLAR_TOWER_XMC/Libraries/XMCLib/inc\xmc_gpio.h ****  * --------------
  38:C:/Users/Lenovo/workspace/dave_workspace/SOLAR_TOWER_XMC/Libraries/XMCLib/inc\xmc_gpio.h ****  *
  39:C:/Users/Lenovo/workspace/dave_workspace/SOLAR_TOWER_XMC/Libraries/XMCLib/inc\xmc_gpio.h ****  * 2015-02-20:
  40:C:/Users/Lenovo/workspace/dave_workspace/SOLAR_TOWER_XMC/Libraries/XMCLib/inc\xmc_gpio.h ****  *     - Initial draft<br>
  41:C:/Users/Lenovo/workspace/dave_workspace/SOLAR_TOWER_XMC/Libraries/XMCLib/inc\xmc_gpio.h ****  *     - Documentation improved <br>
  42:C:/Users/Lenovo/workspace/dave_workspace/SOLAR_TOWER_XMC/Libraries/XMCLib/inc\xmc_gpio.h ****  *      
  43:C:/Users/Lenovo/workspace/dave_workspace/SOLAR_TOWER_XMC/Libraries/XMCLib/inc\xmc_gpio.h ****  * 2015-06-20:
  44:C:/Users/Lenovo/workspace/dave_workspace/SOLAR_TOWER_XMC/Libraries/XMCLib/inc\xmc_gpio.h ****  *     - Removed version macros and declaration of GetDriverVersion API
  45:C:/Users/Lenovo/workspace/dave_workspace/SOLAR_TOWER_XMC/Libraries/XMCLib/inc\xmc_gpio.h ****  *
  46:C:/Users/Lenovo/workspace/dave_workspace/SOLAR_TOWER_XMC/Libraries/XMCLib/inc\xmc_gpio.h ****  * @endcond
  47:C:/Users/Lenovo/workspace/dave_workspace/SOLAR_TOWER_XMC/Libraries/XMCLib/inc\xmc_gpio.h ****  *
  48:C:/Users/Lenovo/workspace/dave_workspace/SOLAR_TOWER_XMC/Libraries/XMCLib/inc\xmc_gpio.h ****  */
  49:C:/Users/Lenovo/workspace/dave_workspace/SOLAR_TOWER_XMC/Libraries/XMCLib/inc\xmc_gpio.h **** 
  50:C:/Users/Lenovo/workspace/dave_workspace/SOLAR_TOWER_XMC/Libraries/XMCLib/inc\xmc_gpio.h **** #ifndef XMC_GPIO_H
  51:C:/Users/Lenovo/workspace/dave_workspace/SOLAR_TOWER_XMC/Libraries/XMCLib/inc\xmc_gpio.h **** #define XMC_GPIO_H
  52:C:/Users/Lenovo/workspace/dave_workspace/SOLAR_TOWER_XMC/Libraries/XMCLib/inc\xmc_gpio.h **** 
  53:C:/Users/Lenovo/workspace/dave_workspace/SOLAR_TOWER_XMC/Libraries/XMCLib/inc\xmc_gpio.h **** /**************************************************************************************************
  54:C:/Users/Lenovo/workspace/dave_workspace/SOLAR_TOWER_XMC/Libraries/XMCLib/inc\xmc_gpio.h ****  * HEADER FILES
  55:C:/Users/Lenovo/workspace/dave_workspace/SOLAR_TOWER_XMC/Libraries/XMCLib/inc\xmc_gpio.h ****  **************************************************************************************************
  56:C:/Users/Lenovo/workspace/dave_workspace/SOLAR_TOWER_XMC/Libraries/XMCLib/inc\xmc_gpio.h **** 
  57:C:/Users/Lenovo/workspace/dave_workspace/SOLAR_TOWER_XMC/Libraries/XMCLib/inc\xmc_gpio.h **** #include "xmc_common.h"
  58:C:/Users/Lenovo/workspace/dave_workspace/SOLAR_TOWER_XMC/Libraries/XMCLib/inc\xmc_gpio.h **** 
  59:C:/Users/Lenovo/workspace/dave_workspace/SOLAR_TOWER_XMC/Libraries/XMCLib/inc\xmc_gpio.h **** /**
  60:C:/Users/Lenovo/workspace/dave_workspace/SOLAR_TOWER_XMC/Libraries/XMCLib/inc\xmc_gpio.h ****  * @addtogroup XMClib XMC Peripheral Library
  61:C:/Users/Lenovo/workspace/dave_workspace/SOLAR_TOWER_XMC/Libraries/XMCLib/inc\xmc_gpio.h ****  * @{
  62:C:/Users/Lenovo/workspace/dave_workspace/SOLAR_TOWER_XMC/Libraries/XMCLib/inc\xmc_gpio.h ****  */
  63:C:/Users/Lenovo/workspace/dave_workspace/SOLAR_TOWER_XMC/Libraries/XMCLib/inc\xmc_gpio.h **** 
  64:C:/Users/Lenovo/workspace/dave_workspace/SOLAR_TOWER_XMC/Libraries/XMCLib/inc\xmc_gpio.h **** /**
  65:C:/Users/Lenovo/workspace/dave_workspace/SOLAR_TOWER_XMC/Libraries/XMCLib/inc\xmc_gpio.h ****  * @addtogroup GPIO
  66:C:/Users/Lenovo/workspace/dave_workspace/SOLAR_TOWER_XMC/Libraries/XMCLib/inc\xmc_gpio.h ****  * @brief General Purpose Input Output (GPIO) driver for the XMC microcontroller family.
  67:C:/Users/Lenovo/workspace/dave_workspace/SOLAR_TOWER_XMC/Libraries/XMCLib/inc\xmc_gpio.h ****  *
  68:C:/Users/Lenovo/workspace/dave_workspace/SOLAR_TOWER_XMC/Libraries/XMCLib/inc\xmc_gpio.h ****  * GPIO driver provide a generic and very flexible software interface for all standard digital I/O 
  69:C:/Users/Lenovo/workspace/dave_workspace/SOLAR_TOWER_XMC/Libraries/XMCLib/inc\xmc_gpio.h ****  * Each port slice has individual interfaces for the operation as General Purpose I/O and it furthe
  70:C:/Users/Lenovo/workspace/dave_workspace/SOLAR_TOWER_XMC/Libraries/XMCLib/inc\xmc_gpio.h ****  * connectivity to the on-chip periphery and the control for the pad characteristics. 
  71:C:/Users/Lenovo/workspace/dave_workspace/SOLAR_TOWER_XMC/Libraries/XMCLib/inc\xmc_gpio.h ****  *
  72:C:/Users/Lenovo/workspace/dave_workspace/SOLAR_TOWER_XMC/Libraries/XMCLib/inc\xmc_gpio.h ****  * The driver is divided into Input and Output mode.
  73:C:/Users/Lenovo/workspace/dave_workspace/SOLAR_TOWER_XMC/Libraries/XMCLib/inc\xmc_gpio.h ****  *
  74:C:/Users/Lenovo/workspace/dave_workspace/SOLAR_TOWER_XMC/Libraries/XMCLib/inc\xmc_gpio.h ****  * Input mode features:
  75:C:/Users/Lenovo/workspace/dave_workspace/SOLAR_TOWER_XMC/Libraries/XMCLib/inc\xmc_gpio.h ****  * -# Configuration structure XMC_GPIO_CONFIG_t and initialization function XMC_GPIO_Init()
  76:C:/Users/Lenovo/workspace/dave_workspace/SOLAR_TOWER_XMC/Libraries/XMCLib/inc\xmc_gpio.h ****  * -# Allows the selection of weak pull-up or pull-down device. Configuration structure XMC_GPIO_MO
  77:C:/Users/Lenovo/workspace/dave_workspace/SOLAR_TOWER_XMC/Libraries/XMCLib/inc\xmc_gpio.h ****  * \if XMC1
  78:C:/Users/Lenovo/workspace/dave_workspace/SOLAR_TOWER_XMC/Libraries/XMCLib/inc\xmc_gpio.h ****  * -# Allows the selection of input hysteresis. XMC_GPIO_SetInputHysteresis()
  79:C:/Users/Lenovo/workspace/dave_workspace/SOLAR_TOWER_XMC/Libraries/XMCLib/inc\xmc_gpio.h ****  * \endif
  80:C:/Users/Lenovo/workspace/dave_workspace/SOLAR_TOWER_XMC/Libraries/XMCLib/inc\xmc_gpio.h ****  *
  81:C:/Users/Lenovo/workspace/dave_workspace/SOLAR_TOWER_XMC/Libraries/XMCLib/inc\xmc_gpio.h ****  * 
  82:C:/Users/Lenovo/workspace/dave_workspace/SOLAR_TOWER_XMC/Libraries/XMCLib/inc\xmc_gpio.h ****  * Output mode features:
  83:C:/Users/Lenovo/workspace/dave_workspace/SOLAR_TOWER_XMC/Libraries/XMCLib/inc\xmc_gpio.h ****  * -# Allows the selection of push pull/open drain and Alternate output. Configuration structure XM
  84:C:/Users/Lenovo/workspace/dave_workspace/SOLAR_TOWER_XMC/Libraries/XMCLib/inc\xmc_gpio.h ****  * \if XMC4
  85:C:/Users/Lenovo/workspace/dave_workspace/SOLAR_TOWER_XMC/Libraries/XMCLib/inc\xmc_gpio.h ****  * -# Allows the selection of pad driver strength. Configuration structure XMC_GPIO_OUTPUT_STRENGTH
  86:C:/Users/Lenovo/workspace/dave_workspace/SOLAR_TOWER_XMC/Libraries/XMCLib/inc\xmc_gpio.h ****  * \endif
  87:C:/Users/Lenovo/workspace/dave_workspace/SOLAR_TOWER_XMC/Libraries/XMCLib/inc\xmc_gpio.h ****  *
  88:C:/Users/Lenovo/workspace/dave_workspace/SOLAR_TOWER_XMC/Libraries/XMCLib/inc\xmc_gpio.h ****  * -# Allows the selection of initial output level. Configuration structure XMC_GPIO_OUTPUT_LEVEL_t
  89:C:/Users/Lenovo/workspace/dave_workspace/SOLAR_TOWER_XMC/Libraries/XMCLib/inc\xmc_gpio.h ****  *
  90:C:/Users/Lenovo/workspace/dave_workspace/SOLAR_TOWER_XMC/Libraries/XMCLib/inc\xmc_gpio.h ****  *@{
  91:C:/Users/Lenovo/workspace/dave_workspace/SOLAR_TOWER_XMC/Libraries/XMCLib/inc\xmc_gpio.h ****  */
  92:C:/Users/Lenovo/workspace/dave_workspace/SOLAR_TOWER_XMC/Libraries/XMCLib/inc\xmc_gpio.h ****  
  93:C:/Users/Lenovo/workspace/dave_workspace/SOLAR_TOWER_XMC/Libraries/XMCLib/inc\xmc_gpio.h **** /**************************************************************************************************
  94:C:/Users/Lenovo/workspace/dave_workspace/SOLAR_TOWER_XMC/Libraries/XMCLib/inc\xmc_gpio.h ****  * MACROS
  95:C:/Users/Lenovo/workspace/dave_workspace/SOLAR_TOWER_XMC/Libraries/XMCLib/inc\xmc_gpio.h ****  **************************************************************************************************
  96:C:/Users/Lenovo/workspace/dave_workspace/SOLAR_TOWER_XMC/Libraries/XMCLib/inc\xmc_gpio.h **** 
  97:C:/Users/Lenovo/workspace/dave_workspace/SOLAR_TOWER_XMC/Libraries/XMCLib/inc\xmc_gpio.h **** #define PORT_IOCR_PC_Pos PORT0_IOCR0_PC0_Pos
  98:C:/Users/Lenovo/workspace/dave_workspace/SOLAR_TOWER_XMC/Libraries/XMCLib/inc\xmc_gpio.h **** #define PORT_IOCR_PC_Msk PORT0_IOCR0_PC0_Msk
  99:C:/Users/Lenovo/workspace/dave_workspace/SOLAR_TOWER_XMC/Libraries/XMCLib/inc\xmc_gpio.h **** 
 100:C:/Users/Lenovo/workspace/dave_workspace/SOLAR_TOWER_XMC/Libraries/XMCLib/inc\xmc_gpio.h **** #define PORT_IOCR_PC_Size 				(8U)
 101:C:/Users/Lenovo/workspace/dave_workspace/SOLAR_TOWER_XMC/Libraries/XMCLib/inc\xmc_gpio.h **** 											
 102:C:/Users/Lenovo/workspace/dave_workspace/SOLAR_TOWER_XMC/Libraries/XMCLib/inc\xmc_gpio.h **** 
 103:C:/Users/Lenovo/workspace/dave_workspace/SOLAR_TOWER_XMC/Libraries/XMCLib/inc\xmc_gpio.h **** #define XMC_GPIO_CHECK_OUTPUT_LEVEL(level) ((level == XMC_GPIO_OUTPUT_LEVEL_LOW) || \
 104:C:/Users/Lenovo/workspace/dave_workspace/SOLAR_TOWER_XMC/Libraries/XMCLib/inc\xmc_gpio.h ****                                             (level == XMC_GPIO_OUTPUT_LEVEL_HIGH))
 105:C:/Users/Lenovo/workspace/dave_workspace/SOLAR_TOWER_XMC/Libraries/XMCLib/inc\xmc_gpio.h ****                                             
 106:C:/Users/Lenovo/workspace/dave_workspace/SOLAR_TOWER_XMC/Libraries/XMCLib/inc\xmc_gpio.h **** #define XMC_GPIO_CHECK_HWCTRL(hwctrl) ((hwctrl == XMC_GPIO_HWCTRL_DISABLED) || \
 107:C:/Users/Lenovo/workspace/dave_workspace/SOLAR_TOWER_XMC/Libraries/XMCLib/inc\xmc_gpio.h ****                                        (hwctrl == XMC_GPIO_HWCTRL_PERIPHERAL1) || \
 108:C:/Users/Lenovo/workspace/dave_workspace/SOLAR_TOWER_XMC/Libraries/XMCLib/inc\xmc_gpio.h ****                                        (hwctrl == XMC_GPIO_HWCTRL_PERIPHERAL2))                    
 109:C:/Users/Lenovo/workspace/dave_workspace/SOLAR_TOWER_XMC/Libraries/XMCLib/inc\xmc_gpio.h ****                                             
 110:C:/Users/Lenovo/workspace/dave_workspace/SOLAR_TOWER_XMC/Libraries/XMCLib/inc\xmc_gpio.h **** /**************************************************************************************************
 111:C:/Users/Lenovo/workspace/dave_workspace/SOLAR_TOWER_XMC/Libraries/XMCLib/inc\xmc_gpio.h ****  * ENUMS
 112:C:/Users/Lenovo/workspace/dave_workspace/SOLAR_TOWER_XMC/Libraries/XMCLib/inc\xmc_gpio.h ****  **************************************************************************************************
 113:C:/Users/Lenovo/workspace/dave_workspace/SOLAR_TOWER_XMC/Libraries/XMCLib/inc\xmc_gpio.h **** 
 114:C:/Users/Lenovo/workspace/dave_workspace/SOLAR_TOWER_XMC/Libraries/XMCLib/inc\xmc_gpio.h **** 
 115:C:/Users/Lenovo/workspace/dave_workspace/SOLAR_TOWER_XMC/Libraries/XMCLib/inc\xmc_gpio.h **** /**
 116:C:/Users/Lenovo/workspace/dave_workspace/SOLAR_TOWER_XMC/Libraries/XMCLib/inc\xmc_gpio.h ****  * Defines output level of a pin. Use type \a XMC_GPIO_OUTPUT_LEVEL_t for this enum.
 117:C:/Users/Lenovo/workspace/dave_workspace/SOLAR_TOWER_XMC/Libraries/XMCLib/inc\xmc_gpio.h ****  */
 118:C:/Users/Lenovo/workspace/dave_workspace/SOLAR_TOWER_XMC/Libraries/XMCLib/inc\xmc_gpio.h **** typedef enum XMC_GPIO_OUTPUT_LEVEL
 119:C:/Users/Lenovo/workspace/dave_workspace/SOLAR_TOWER_XMC/Libraries/XMCLib/inc\xmc_gpio.h **** {
 120:C:/Users/Lenovo/workspace/dave_workspace/SOLAR_TOWER_XMC/Libraries/XMCLib/inc\xmc_gpio.h ****   XMC_GPIO_OUTPUT_LEVEL_LOW  = 0x10000U, /**<  Reset bit */
 121:C:/Users/Lenovo/workspace/dave_workspace/SOLAR_TOWER_XMC/Libraries/XMCLib/inc\xmc_gpio.h ****   XMC_GPIO_OUTPUT_LEVEL_HIGH = 0x1U, 	/**< Set bit  */
 122:C:/Users/Lenovo/workspace/dave_workspace/SOLAR_TOWER_XMC/Libraries/XMCLib/inc\xmc_gpio.h **** } XMC_GPIO_OUTPUT_LEVEL_t;
 123:C:/Users/Lenovo/workspace/dave_workspace/SOLAR_TOWER_XMC/Libraries/XMCLib/inc\xmc_gpio.h **** 
 124:C:/Users/Lenovo/workspace/dave_workspace/SOLAR_TOWER_XMC/Libraries/XMCLib/inc\xmc_gpio.h **** /**
 125:C:/Users/Lenovo/workspace/dave_workspace/SOLAR_TOWER_XMC/Libraries/XMCLib/inc\xmc_gpio.h ****  * Defines direct hardware control characteristics of the pin . Use type \a XMC_GPIO_HWCTRL_t for t
 126:C:/Users/Lenovo/workspace/dave_workspace/SOLAR_TOWER_XMC/Libraries/XMCLib/inc\xmc_gpio.h ****  */
 127:C:/Users/Lenovo/workspace/dave_workspace/SOLAR_TOWER_XMC/Libraries/XMCLib/inc\xmc_gpio.h **** typedef enum XMC_GPIO_HWCTRL
 128:C:/Users/Lenovo/workspace/dave_workspace/SOLAR_TOWER_XMC/Libraries/XMCLib/inc\xmc_gpio.h **** {
 129:C:/Users/Lenovo/workspace/dave_workspace/SOLAR_TOWER_XMC/Libraries/XMCLib/inc\xmc_gpio.h ****   XMC_GPIO_HWCTRL_DISABLED     = 0x0U, /**<  Software control only */
 130:C:/Users/Lenovo/workspace/dave_workspace/SOLAR_TOWER_XMC/Libraries/XMCLib/inc\xmc_gpio.h ****   XMC_GPIO_HWCTRL_PERIPHERAL1  = 0x1U, /**<  HWI0/HWO0 control path can override the software confi
 131:C:/Users/Lenovo/workspace/dave_workspace/SOLAR_TOWER_XMC/Libraries/XMCLib/inc\xmc_gpio.h ****   XMC_GPIO_HWCTRL_PERIPHERAL2  = 0x2U  /**<  HWI1/HWO1 control path can override the software confi
 132:C:/Users/Lenovo/workspace/dave_workspace/SOLAR_TOWER_XMC/Libraries/XMCLib/inc\xmc_gpio.h **** } XMC_GPIO_HWCTRL_t;
 133:C:/Users/Lenovo/workspace/dave_workspace/SOLAR_TOWER_XMC/Libraries/XMCLib/inc\xmc_gpio.h **** 
 134:C:/Users/Lenovo/workspace/dave_workspace/SOLAR_TOWER_XMC/Libraries/XMCLib/inc\xmc_gpio.h **** /**************************************************************************************************
 135:C:/Users/Lenovo/workspace/dave_workspace/SOLAR_TOWER_XMC/Libraries/XMCLib/inc\xmc_gpio.h ****  * DEVICE FAMILY EXTENSIONS
 136:C:/Users/Lenovo/workspace/dave_workspace/SOLAR_TOWER_XMC/Libraries/XMCLib/inc\xmc_gpio.h ****  **************************************************************************************************
 137:C:/Users/Lenovo/workspace/dave_workspace/SOLAR_TOWER_XMC/Libraries/XMCLib/inc\xmc_gpio.h **** 
 138:C:/Users/Lenovo/workspace/dave_workspace/SOLAR_TOWER_XMC/Libraries/XMCLib/inc\xmc_gpio.h ****  #if UC_FAMILY == XMC1
 139:C:/Users/Lenovo/workspace/dave_workspace/SOLAR_TOWER_XMC/Libraries/XMCLib/inc\xmc_gpio.h **** #include "xmc1_gpio.h"
 140:C:/Users/Lenovo/workspace/dave_workspace/SOLAR_TOWER_XMC/Libraries/XMCLib/inc\xmc_gpio.h **** #elif UC_FAMILY == XMC4
 141:C:/Users/Lenovo/workspace/dave_workspace/SOLAR_TOWER_XMC/Libraries/XMCLib/inc\xmc_gpio.h **** #include "xmc4_gpio.h"
 142:C:/Users/Lenovo/workspace/dave_workspace/SOLAR_TOWER_XMC/Libraries/XMCLib/inc\xmc_gpio.h **** #else
 143:C:/Users/Lenovo/workspace/dave_workspace/SOLAR_TOWER_XMC/Libraries/XMCLib/inc\xmc_gpio.h **** #error "xmc_gpio.h: family device not supported"
 144:C:/Users/Lenovo/workspace/dave_workspace/SOLAR_TOWER_XMC/Libraries/XMCLib/inc\xmc_gpio.h **** #endif
 145:C:/Users/Lenovo/workspace/dave_workspace/SOLAR_TOWER_XMC/Libraries/XMCLib/inc\xmc_gpio.h **** 
 146:C:/Users/Lenovo/workspace/dave_workspace/SOLAR_TOWER_XMC/Libraries/XMCLib/inc\xmc_gpio.h **** /**************************************************************************************************
 147:C:/Users/Lenovo/workspace/dave_workspace/SOLAR_TOWER_XMC/Libraries/XMCLib/inc\xmc_gpio.h ****  * API PROTOTYPES
 148:C:/Users/Lenovo/workspace/dave_workspace/SOLAR_TOWER_XMC/Libraries/XMCLib/inc\xmc_gpio.h ****  **************************************************************************************************
 149:C:/Users/Lenovo/workspace/dave_workspace/SOLAR_TOWER_XMC/Libraries/XMCLib/inc\xmc_gpio.h **** 
 150:C:/Users/Lenovo/workspace/dave_workspace/SOLAR_TOWER_XMC/Libraries/XMCLib/inc\xmc_gpio.h **** #ifdef __cplusplus
 151:C:/Users/Lenovo/workspace/dave_workspace/SOLAR_TOWER_XMC/Libraries/XMCLib/inc\xmc_gpio.h **** extern "C" {
 152:C:/Users/Lenovo/workspace/dave_workspace/SOLAR_TOWER_XMC/Libraries/XMCLib/inc\xmc_gpio.h **** #endif
 153:C:/Users/Lenovo/workspace/dave_workspace/SOLAR_TOWER_XMC/Libraries/XMCLib/inc\xmc_gpio.h **** 
 154:C:/Users/Lenovo/workspace/dave_workspace/SOLAR_TOWER_XMC/Libraries/XMCLib/inc\xmc_gpio.h **** 
 155:C:/Users/Lenovo/workspace/dave_workspace/SOLAR_TOWER_XMC/Libraries/XMCLib/inc\xmc_gpio.h **** /**
 156:C:/Users/Lenovo/workspace/dave_workspace/SOLAR_TOWER_XMC/Libraries/XMCLib/inc\xmc_gpio.h ****  * @param  port	  Constant pointer pointing to GPIO port, to access port registers like Pn_OUT,Pn_O
 157:C:/Users/Lenovo/workspace/dave_workspace/SOLAR_TOWER_XMC/Libraries/XMCLib/inc\xmc_gpio.h ****  * @param  pin	  Port pin number.
 158:C:/Users/Lenovo/workspace/dave_workspace/SOLAR_TOWER_XMC/Libraries/XMCLib/inc\xmc_gpio.h ****  * @param  config GPIO configuration data structure. Refer data structure @ref XMC_GPIO_CONFIG_t fo
 159:C:/Users/Lenovo/workspace/dave_workspace/SOLAR_TOWER_XMC/Libraries/XMCLib/inc\xmc_gpio.h ****  *
 160:C:/Users/Lenovo/workspace/dave_workspace/SOLAR_TOWER_XMC/Libraries/XMCLib/inc\xmc_gpio.h ****  * @return None
 161:C:/Users/Lenovo/workspace/dave_workspace/SOLAR_TOWER_XMC/Libraries/XMCLib/inc\xmc_gpio.h ****  *
 162:C:/Users/Lenovo/workspace/dave_workspace/SOLAR_TOWER_XMC/Libraries/XMCLib/inc\xmc_gpio.h ****  * \par<b>Description:</b><br>
 163:C:/Users/Lenovo/workspace/dave_workspace/SOLAR_TOWER_XMC/Libraries/XMCLib/inc\xmc_gpio.h ****  * \if XMC1
 164:C:/Users/Lenovo/workspace/dave_workspace/SOLAR_TOWER_XMC/Libraries/XMCLib/inc\xmc_gpio.h ****  * Initializes input / output mode settings like, pull up / pull down devices,hysteresis, push pull
 165:C:/Users/Lenovo/workspace/dave_workspace/SOLAR_TOWER_XMC/Libraries/XMCLib/inc\xmc_gpio.h ****  * Also configures alternate function outputs and clears hardware port control for a selected \a po
 166:C:/Users/Lenovo/workspace/dave_workspace/SOLAR_TOWER_XMC/Libraries/XMCLib/inc\xmc_gpio.h ****  * \a config provides selected I/O settings. It configures hardware registers Pn_IOCR,Pn_OUT, Pn_OM
 167:C:/Users/Lenovo/workspace/dave_workspace/SOLAR_TOWER_XMC/Libraries/XMCLib/inc\xmc_gpio.h ****  * \endif
 168:C:/Users/Lenovo/workspace/dave_workspace/SOLAR_TOWER_XMC/Libraries/XMCLib/inc\xmc_gpio.h ****  * \if XMC4
 169:C:/Users/Lenovo/workspace/dave_workspace/SOLAR_TOWER_XMC/Libraries/XMCLib/inc\xmc_gpio.h ****  * Initializes input / output mode settings like, pull up / pull down devices,push pull /open drain
 170:C:/Users/Lenovo/workspace/dave_workspace/SOLAR_TOWER_XMC/Libraries/XMCLib/inc\xmc_gpio.h ****  * Also configures alternate function outputs and clears hardware port control for selected \a port
 171:C:/Users/Lenovo/workspace/dave_workspace/SOLAR_TOWER_XMC/Libraries/XMCLib/inc\xmc_gpio.h ****  * It configures hardware registers Pn_IOCR,Pn_OUT,Pn_OMR,Pn_PDISC and Pn_PDR.\n
 172:C:/Users/Lenovo/workspace/dave_workspace/SOLAR_TOWER_XMC/Libraries/XMCLib/inc\xmc_gpio.h ****  * \endif
 173:C:/Users/Lenovo/workspace/dave_workspace/SOLAR_TOWER_XMC/Libraries/XMCLib/inc\xmc_gpio.h ****  *
 174:C:/Users/Lenovo/workspace/dave_workspace/SOLAR_TOWER_XMC/Libraries/XMCLib/inc\xmc_gpio.h ****  * \par<b>Related APIs:</b><BR>
 175:C:/Users/Lenovo/workspace/dave_workspace/SOLAR_TOWER_XMC/Libraries/XMCLib/inc\xmc_gpio.h ****  *  None
 176:C:/Users/Lenovo/workspace/dave_workspace/SOLAR_TOWER_XMC/Libraries/XMCLib/inc\xmc_gpio.h ****  *
 177:C:/Users/Lenovo/workspace/dave_workspace/SOLAR_TOWER_XMC/Libraries/XMCLib/inc\xmc_gpio.h ****  * \par<b>Note:</b><br>
 178:C:/Users/Lenovo/workspace/dave_workspace/SOLAR_TOWER_XMC/Libraries/XMCLib/inc\xmc_gpio.h ****  * This API is called in definition of DAVE_init by code generation and therefore should not be exp
 179:C:/Users/Lenovo/workspace/dave_workspace/SOLAR_TOWER_XMC/Libraries/XMCLib/inc\xmc_gpio.h ****  * for the normal operation. Use other APIs only after DAVE_init is called successfully (returns DA
 180:C:/Users/Lenovo/workspace/dave_workspace/SOLAR_TOWER_XMC/Libraries/XMCLib/inc\xmc_gpio.h ****  *
 181:C:/Users/Lenovo/workspace/dave_workspace/SOLAR_TOWER_XMC/Libraries/XMCLib/inc\xmc_gpio.h ****  *
 182:C:/Users/Lenovo/workspace/dave_workspace/SOLAR_TOWER_XMC/Libraries/XMCLib/inc\xmc_gpio.h ****  */
 183:C:/Users/Lenovo/workspace/dave_workspace/SOLAR_TOWER_XMC/Libraries/XMCLib/inc\xmc_gpio.h **** 
 184:C:/Users/Lenovo/workspace/dave_workspace/SOLAR_TOWER_XMC/Libraries/XMCLib/inc\xmc_gpio.h ****  
 185:C:/Users/Lenovo/workspace/dave_workspace/SOLAR_TOWER_XMC/Libraries/XMCLib/inc\xmc_gpio.h **** void XMC_GPIO_Init(XMC_GPIO_PORT_t *const port, const uint8_t pin, const XMC_GPIO_CONFIG_t *const c
 186:C:/Users/Lenovo/workspace/dave_workspace/SOLAR_TOWER_XMC/Libraries/XMCLib/inc\xmc_gpio.h ****  
 187:C:/Users/Lenovo/workspace/dave_workspace/SOLAR_TOWER_XMC/Libraries/XMCLib/inc\xmc_gpio.h **** /**
 188:C:/Users/Lenovo/workspace/dave_workspace/SOLAR_TOWER_XMC/Libraries/XMCLib/inc\xmc_gpio.h ****  *
 189:C:/Users/Lenovo/workspace/dave_workspace/SOLAR_TOWER_XMC/Libraries/XMCLib/inc\xmc_gpio.h ****  * @param  port	Constant pointer pointing to GPIO port, to access hardware register Pn_IOCR.
 190:C:/Users/Lenovo/workspace/dave_workspace/SOLAR_TOWER_XMC/Libraries/XMCLib/inc\xmc_gpio.h ****  * @param  pin	Port pin number.
 191:C:/Users/Lenovo/workspace/dave_workspace/SOLAR_TOWER_XMC/Libraries/XMCLib/inc\xmc_gpio.h ****  * @param  mode input / output functionality selection. Refer @ref XMC_GPIO_MODE_t for valid values
 192:C:/Users/Lenovo/workspace/dave_workspace/SOLAR_TOWER_XMC/Libraries/XMCLib/inc\xmc_gpio.h ****  *
 193:C:/Users/Lenovo/workspace/dave_workspace/SOLAR_TOWER_XMC/Libraries/XMCLib/inc\xmc_gpio.h ****  * @return None
 194:C:/Users/Lenovo/workspace/dave_workspace/SOLAR_TOWER_XMC/Libraries/XMCLib/inc\xmc_gpio.h ****  *
 195:C:/Users/Lenovo/workspace/dave_workspace/SOLAR_TOWER_XMC/Libraries/XMCLib/inc\xmc_gpio.h ****  * \par<b>Description:</b><br>
 196:C:/Users/Lenovo/workspace/dave_workspace/SOLAR_TOWER_XMC/Libraries/XMCLib/inc\xmc_gpio.h ****  * Sets digital input and output driver functionality and characteristics of a GPIO port pin. It co
 197:C:/Users/Lenovo/workspace/dave_workspace/SOLAR_TOWER_XMC/Libraries/XMCLib/inc\xmc_gpio.h ****  * registers Pn_IOCR. \a mode is initially configured during initialization in XMC_GPIO_Init(). Cal
 198:C:/Users/Lenovo/workspace/dave_workspace/SOLAR_TOWER_XMC/Libraries/XMCLib/inc\xmc_gpio.h ****  * the port direction functionality as needed later in the program.
 199:C:/Users/Lenovo/workspace/dave_workspace/SOLAR_TOWER_XMC/Libraries/XMCLib/inc\xmc_gpio.h ****  *
 200:C:/Users/Lenovo/workspace/dave_workspace/SOLAR_TOWER_XMC/Libraries/XMCLib/inc\xmc_gpio.h ****  * \par<b>Related APIs:</b><BR>
 201:C:/Users/Lenovo/workspace/dave_workspace/SOLAR_TOWER_XMC/Libraries/XMCLib/inc\xmc_gpio.h ****  *  None
 202:C:/Users/Lenovo/workspace/dave_workspace/SOLAR_TOWER_XMC/Libraries/XMCLib/inc\xmc_gpio.h ****  *
 203:C:/Users/Lenovo/workspace/dave_workspace/SOLAR_TOWER_XMC/Libraries/XMCLib/inc\xmc_gpio.h ****  */
 204:C:/Users/Lenovo/workspace/dave_workspace/SOLAR_TOWER_XMC/Libraries/XMCLib/inc\xmc_gpio.h **** 
 205:C:/Users/Lenovo/workspace/dave_workspace/SOLAR_TOWER_XMC/Libraries/XMCLib/inc\xmc_gpio.h **** void XMC_GPIO_SetMode(XMC_GPIO_PORT_t *const port, const uint8_t pin, const XMC_GPIO_MODE_t mode);
 206:C:/Users/Lenovo/workspace/dave_workspace/SOLAR_TOWER_XMC/Libraries/XMCLib/inc\xmc_gpio.h **** 
 207:C:/Users/Lenovo/workspace/dave_workspace/SOLAR_TOWER_XMC/Libraries/XMCLib/inc\xmc_gpio.h **** 
 208:C:/Users/Lenovo/workspace/dave_workspace/SOLAR_TOWER_XMC/Libraries/XMCLib/inc\xmc_gpio.h **** /**
 209:C:/Users/Lenovo/workspace/dave_workspace/SOLAR_TOWER_XMC/Libraries/XMCLib/inc\xmc_gpio.h ****  *
 210:C:/Users/Lenovo/workspace/dave_workspace/SOLAR_TOWER_XMC/Libraries/XMCLib/inc\xmc_gpio.h ****  * @param  port	 Constant pointer pointing to GPIO port, to access hardware register Pn_OMR.
 211:C:/Users/Lenovo/workspace/dave_workspace/SOLAR_TOWER_XMC/Libraries/XMCLib/inc\xmc_gpio.h ****  * @param  pin	 Port pin number.
 212:C:/Users/Lenovo/workspace/dave_workspace/SOLAR_TOWER_XMC/Libraries/XMCLib/inc\xmc_gpio.h ****  * @param  level output level selection. Refer @ref XMC_GPIO_OUTPUT_LEVEL_t for valid values.
 213:C:/Users/Lenovo/workspace/dave_workspace/SOLAR_TOWER_XMC/Libraries/XMCLib/inc\xmc_gpio.h ****  *
 214:C:/Users/Lenovo/workspace/dave_workspace/SOLAR_TOWER_XMC/Libraries/XMCLib/inc\xmc_gpio.h ****  * @return None
 215:C:/Users/Lenovo/workspace/dave_workspace/SOLAR_TOWER_XMC/Libraries/XMCLib/inc\xmc_gpio.h ****  *
 216:C:/Users/Lenovo/workspace/dave_workspace/SOLAR_TOWER_XMC/Libraries/XMCLib/inc\xmc_gpio.h ****  * \par<b>Description:</b><br>
 217:C:/Users/Lenovo/workspace/dave_workspace/SOLAR_TOWER_XMC/Libraries/XMCLib/inc\xmc_gpio.h ****  * Set port pin output level to high or low.It configures hardware registers Pn_OMR.\a level is ini
 218:C:/Users/Lenovo/workspace/dave_workspace/SOLAR_TOWER_XMC/Libraries/XMCLib/inc\xmc_gpio.h ****  * configured during initialization in XMC_GPIO_Init(). Call this API to alter output level as need
 219:C:/Users/Lenovo/workspace/dave_workspace/SOLAR_TOWER_XMC/Libraries/XMCLib/inc\xmc_gpio.h ****  *
 220:C:/Users/Lenovo/workspace/dave_workspace/SOLAR_TOWER_XMC/Libraries/XMCLib/inc\xmc_gpio.h ****  * \par<b>Related APIs:</b><BR>
 221:C:/Users/Lenovo/workspace/dave_workspace/SOLAR_TOWER_XMC/Libraries/XMCLib/inc\xmc_gpio.h ****  *  XMC_GPIO_SetOutputHigh(), XMC_GPIO_SetOutputLow().
 222:C:/Users/Lenovo/workspace/dave_workspace/SOLAR_TOWER_XMC/Libraries/XMCLib/inc\xmc_gpio.h ****  *
 223:C:/Users/Lenovo/workspace/dave_workspace/SOLAR_TOWER_XMC/Libraries/XMCLib/inc\xmc_gpio.h ****  * \par<b>Note:</b><br>
 224:C:/Users/Lenovo/workspace/dave_workspace/SOLAR_TOWER_XMC/Libraries/XMCLib/inc\xmc_gpio.h ****  * Prior to this api, user has to configure port pin to output mode using XMC_GPIO_SetMode().
 225:C:/Users/Lenovo/workspace/dave_workspace/SOLAR_TOWER_XMC/Libraries/XMCLib/inc\xmc_gpio.h ****  *
 226:C:/Users/Lenovo/workspace/dave_workspace/SOLAR_TOWER_XMC/Libraries/XMCLib/inc\xmc_gpio.h ****  */
 227:C:/Users/Lenovo/workspace/dave_workspace/SOLAR_TOWER_XMC/Libraries/XMCLib/inc\xmc_gpio.h **** 
 228:C:/Users/Lenovo/workspace/dave_workspace/SOLAR_TOWER_XMC/Libraries/XMCLib/inc\xmc_gpio.h **** 
 229:C:/Users/Lenovo/workspace/dave_workspace/SOLAR_TOWER_XMC/Libraries/XMCLib/inc\xmc_gpio.h **** __STATIC_INLINE void XMC_GPIO_SetOutputLevel(XMC_GPIO_PORT_t *const port, const uint8_t pin, const 
 230:C:/Users/Lenovo/workspace/dave_workspace/SOLAR_TOWER_XMC/Libraries/XMCLib/inc\xmc_gpio.h **** {
 232              	 .loc 2 230 0
 233              	 .cfi_startproc
 234 0000 80B5     	 push {r7,lr}
 235              	.LCFI6:
 236              	 .cfi_def_cfa_offset 8
 237              	 .cfi_offset 7,-8
 238              	 .cfi_offset 14,-4
 239 0002 84B0     	 sub sp,sp,#16
 240              	.LCFI7:
 241              	 .cfi_def_cfa_offset 24
 242 0004 00AF     	 add r7,sp,#0
 243              	.LCFI8:
 244              	 .cfi_def_cfa_register 7
 245 0006 F860     	 str r0,[r7,#12]
 246 0008 7A60     	 str r2,[r7,#4]
 247 000a 0B23     	 mov r3,#11
 248 000c FB18     	 add r3,r7,r3
 249 000e 0A1C     	 add r2,r1,#0
 250 0010 1A70     	 strb r2,[r3]
 231:C:/Users/Lenovo/workspace/dave_workspace/SOLAR_TOWER_XMC/Libraries/XMCLib/inc\xmc_gpio.h ****   XMC_ASSERT("XMC_GPIO_SetOutputLevel: Invalid port", XMC_GPIO_CHECK_OUTPUT_PORT(port));
 232:C:/Users/Lenovo/workspace/dave_workspace/SOLAR_TOWER_XMC/Libraries/XMCLib/inc\xmc_gpio.h ****   XMC_ASSERT("XMC_GPIO_SetOutputLevel: Invalid output level", XMC_GPIO_CHECK_OUTPUT_LEVEL(level));
 233:C:/Users/Lenovo/workspace/dave_workspace/SOLAR_TOWER_XMC/Libraries/XMCLib/inc\xmc_gpio.h ****   
 234:C:/Users/Lenovo/workspace/dave_workspace/SOLAR_TOWER_XMC/Libraries/XMCLib/inc\xmc_gpio.h ****   port->OMR = (uint32_t)level << pin;
 251              	 .loc 2 234 0
 252 0012 0B23     	 mov r3,#11
 253 0014 FB18     	 add r3,r7,r3
 254 0016 1B78     	 ldrb r3,[r3]
 255 0018 7A68     	 ldr r2,[r7,#4]
 256 001a 9A40     	 lsl r2,r2,r3
 257 001c FB68     	 ldr r3,[r7,#12]
 258 001e 5A60     	 str r2,[r3,#4]
 235:C:/Users/Lenovo/workspace/dave_workspace/SOLAR_TOWER_XMC/Libraries/XMCLib/inc\xmc_gpio.h **** }
 259              	 .loc 2 235 0
 260 0020 BD46     	 mov sp,r7
 261 0022 04B0     	 add sp,sp,#16
 262              	 
 263 0024 80BD     	 pop {r7,pc}
 264              	 .cfi_endproc
 265              	.LFE48:
 267              	 .comm tx_config,8,4
 268              	 .comm rx_config,8,4
 269              	 .comm uart_config,12,4
 270              	 .comm pcs_button_config,8,4
 271              	 .comm CAN0_txd_config,8,4
 272              	 .comm CAN0_rxd_config,8,4
 273              	 .comm can_baud,12,4
 274              	 .comm msgObjToPCS,32,8
 275              	 .comm msgObjFromPCS,32,8
 276              	 .comm tx_genix_config,8,4
 277              	 .comm rx_genix_config,8,4
 278              	 .comm uart_genix_config,12,4
 279              	 .comm led,8,4
 280              	 .comm button,8,4
 281              	 .comm dipswitch_config,8,4
 282              	 .comm g_global_handle,24,4
 283              	 .comm g_group_handle,20,4
 284              	 .comm g_queue_handle,12,4
 285              	 .comm g_queue_entry,16,4
 286              	 .comm g_channel_handle,64,4
 287              	 .comm g_result_handle,16,4
 288              	 .comm adc_io,8,4
 289              	 .comm relay_KMP,8,4
 290              	 .comm relay_KMF,8,4
 291              	 .comm relay_KDSG,8,4
 292              	 .comm relay_KBAT,8,4
 293              	 .comm SLICE0_config,8,4
 294              	 .comm SLICE1_config,8,4
 295              	 .comm SLICE2_config,8,4
 296              	 .comm sysTickParamHandle,6,4
 297              	 .comm pcsBmsStatus,4,4
 298              	 .comm bmsSensor,8,4
 299              	 .comm pcsVoltages,8,4
 300              	 .comm pcsCurrents,8,4
 301              	 .comm pcsPowers,8,4
 302              	 .comm pcsMiscs,4,4
 303              	 .comm pcsSystemStatus,5,4
 304              	 .comm pcsDCgridStatus,4,4
 305              	 .comm pcsACinvStatus,4,4
 306              	 .comm pcsPVconvStatus,4,4
 307              	 .comm pcsBatconvStatus,4,4
 308              	 .comm data_group,76,4
 309              	 .comm buffptr,4,4
 310              	 .comm espBuffer,80,4
 311              	 .comm pduSensorRaw,8,4
 312              	 .comm pduSensorAvg,20,4
 313              	 .comm pduSensor,16,4
 314              	 .comm genix_data,8,4
 315              	 .comm mcu_state,1,1
 316              	 .comm controlFlag,6,4
 317              	 .global count
 318 0026 C046     	 .section .bss.count,"aw",%nobits
 319              	 .align 1
 322              	count:
 323 0000 0000     	 .space 2
 324              	 .section .text.SysTick_Handler,"ax",%progbits
 325              	 .align 2
 326              	 .global SysTick_Handler
 327              	 .code 16
 328              	 .thumb_func
 330              	SysTick_Handler:
 331              	.LFB380:
 332              	 .file 3 "../main.c"
   1:../main.c     **** /*
   2:../main.c     ****  * main.c
   3:../main.c     ****  *
   4:../main.c     ****  *  Created on: 2022 Mar 03 10:25:10
   5:../main.c     ****  *  Author: Lenovo
   6:../main.c     ****  */
   7:../main.c     **** 
   8:../main.c     **** 
   9:../main.c     **** 
  10:../main.c     **** #include <xmc_common.h>
  11:../main.c     **** #include "variables.h"
  12:../main.c     **** #include "operation.h"
  13:../main.c     **** 
  14:../main.c     **** #define COUNT_MAX 1000
  15:../main.c     **** uint16_t count = 0;
  16:../main.c     **** 
  17:../main.c     **** /**
  18:../main.c     **** 
  19:../main.c     ****  * @brief main() - Application entry point
  20:../main.c     ****  *
  21:../main.c     ****  * <b>Details of function</b><br>
  22:../main.c     ****  * This routine is the application entry point. It is invoked by the device startup code. 
  23:../main.c     ****  */
  24:../main.c     **** 
  25:../main.c     **** void SysTick_Handler(void)
  26:../main.c     **** {
 333              	 .loc 3 26 0
 334              	 .cfi_startproc
 335 0000 80B5     	 push {r7,lr}
 336              	.LCFI9:
 337              	 .cfi_def_cfa_offset 8
 338              	 .cfi_offset 7,-8
 339              	 .cfi_offset 14,-4
 340 0002 00AF     	 add r7,sp,#0
 341              	.LCFI10:
 342              	 .cfi_def_cfa_register 7
  27:../main.c     **** 
  28:../main.c     **** }
 343              	 .loc 3 28 0
 344 0004 BD46     	 mov sp,r7
 345              	 
 346 0006 80BD     	 pop {r7,pc}
 347              	 .cfi_endproc
 348              	.LFE380:
 350              	 .global __aeabi_uidiv
 351              	 .section .text.main,"ax",%progbits
 352              	 .align 2
 353              	 .global main
 354              	 .code 16
 355              	 .thumb_func
 357              	main:
 358              	.LFB381:
  29:../main.c     **** 
  30:../main.c     **** int main(void)
  31:../main.c     **** {
 359              	 .loc 3 31 0
 360              	 .cfi_startproc
 361 0000 90B5     	 push {r4,r7,lr}
 362              	.LCFI11:
 363              	 .cfi_def_cfa_offset 12
 364              	 .cfi_offset 4,-12
 365              	 .cfi_offset 7,-8
 366              	 .cfi_offset 14,-4
 367 0002 83B0     	 sub sp,sp,#12
 368              	.LCFI12:
 369              	 .cfi_def_cfa_offset 24
 370 0004 02AF     	 add r7,sp,#8
 371              	.LCFI13:
 372              	 .cfi_def_cfa 7,16
  32:../main.c     ****   /* Create 1 kHz tick and Initialize systick handler variable */
  33:../main.c     ****   sysTickParamHandle.enable 	= false;
 373              	 .loc 3 33 0
 374 0006 8E4B     	 ldr r3,.L25
 375 0008 0022     	 mov r2,#0
 376 000a 1A70     	 strb r2,[r3]
  34:../main.c     ****   sysTickParamHandle.isTimeOut 	= false;
 377              	 .loc 3 34 0
 378 000c 8C4B     	 ldr r3,.L25
 379 000e 0022     	 mov r2,#0
 380 0010 1A71     	 strb r2,[r3,#4]
  35:../main.c     ****   sysTickParamHandle.count		= 0;
 381              	 .loc 3 35 0
 382 0012 8B4B     	 ldr r3,.L25
 383 0014 0022     	 mov r2,#0
 384 0016 5A80     	 strh r2,[r3,#2]
  36:../main.c     ****   SysTick_Config(SystemCoreClock / 1000);
 385              	 .loc 3 36 0
 386 0018 8A4B     	 ldr r3,.L25+4
 387 001a 1B68     	 ldr r3,[r3]
 388 001c 181C     	 mov r0,r3
 389 001e FA23     	 mov r3,#250
 390 0020 9900     	 lsl r1,r3,#2
 391 0022 FFF7FEFF 	 bl __aeabi_uidiv
 392 0026 031C     	 mov r3,r0
 393 0028 181C     	 mov r0,r3
 394 002a FFF7FEFF 	 bl SysTick_Config
  37:../main.c     **** 
  38:../main.c     ****   /* Initialize Button, LED, and Dipswitches */
  39:../main.c     ****   GPIO_Init();
 395              	 .loc 3 39 0
 396 002e FFF7FEFF 	 bl GPIO_Init
  40:../main.c     **** 
  41:../main.c     ****   /* Initialize ESP32 */
  42:../main.c     ****   ESP32_ConnectionInit();
 397              	 .loc 3 42 0
 398 0032 FFF7FEFF 	 bl ESP32_ConnectionInit
  43:../main.c     **** 
  44:../main.c     ****   /* Initialization for PCS Communication */
  45:../main.c     ****   PCS_ConnectionInit();
 399              	 .loc 3 45 0
 400 0036 FFF7FEFF 	 bl PCS_ConnectionInit
  46:../main.c     **** 
  47:../main.c     ****   /* Initialization for Battery Communication */
  48:../main.c     ****   GENIX_ConnectionInit();
 401              	 .loc 3 48 0
 402 003a FFF7FEFF 	 bl GENIX_ConnectionInit
  49:../main.c     **** 
  50:../main.c     ****   /* Initialization for Power Distribution Control Peripheral */
  51:../main.c     ****   PDU_Relay_Init();
 403              	 .loc 3 51 0
 404 003e FFF7FEFF 	 bl PDU_Relay_Init
  52:../main.c     ****   PDU_SensorADC_Init();
 405              	 .loc 3 52 0
 406 0042 FFF7FEFF 	 bl PDU_SensorADC_Init
  53:../main.c     **** 
  54:../main.c     ****   /* Setup Timer */
  55:../main.c     ****   TIMING_TimerInit();
 407              	 .loc 3 55 0
 408 0046 FFF7FEFF 	 bl TIMING_TimerInit
  56:../main.c     **** 
  57:../main.c     ****   /* PCS Command Initialization */
  58:../main.c     ****   mcu_state = OP_SETUP;
 409              	 .loc 3 58 0
 410 004a 7F4B     	 ldr r3,.L25+8
 411 004c 0022     	 mov r2,#0
 412 004e 1A70     	 strb r2,[r3]
  59:../main.c     **** 
  60:../main.c     ****   controlFlag.isAuto_mode 			 = false;
 413              	 .loc 3 60 0
 414 0050 7E4B     	 ldr r3,.L25+12
 415 0052 0022     	 mov r2,#0
 416 0054 9A70     	 strb r2,[r3,#2]
  61:../main.c     ****   controlFlag.isBypass_power_mode 	 = false;
 417              	 .loc 3 61 0
 418 0056 7D4B     	 ldr r3,.L25+12
 419 0058 0022     	 mov r2,#0
 420 005a DA70     	 strb r2,[r3,#3]
  62:../main.c     ****   controlFlag.isChecking_peripheral  = false;
 421              	 .loc 3 62 0
 422 005c 7B4B     	 ldr r3,.L25+12
 423 005e 0022     	 mov r2,#0
 424 0060 5A71     	 strb r2,[r3,#5]
  63:../main.c     ****   controlFlag.isForced_shutting_down = false;
 425              	 .loc 3 63 0
 426 0062 7A4B     	 ldr r3,.L25+12
 427 0064 0022     	 mov r2,#0
 428 0066 1A71     	 strb r2,[r3,#4]
  64:../main.c     ****   controlFlag.isPerforming_Precharge = false;
 429              	 .loc 3 64 0
 430 0068 784B     	 ldr r3,.L25+12
 431 006a 0022     	 mov r2,#0
 432 006c 1A70     	 strb r2,[r3]
  65:../main.c     ****   controlFlag.isStandby 			 = false;
 433              	 .loc 3 65 0
 434 006e 774B     	 ldr r3,.L25+12
 435 0070 0022     	 mov r2,#0
 436 0072 5A70     	 strb r2,[r3,#1]
 437              	.L23:
  66:../main.c     **** 
  67:../main.c     ****   /* Placeholder for user application code. The while loop below can be replaced with user applicat
  68:../main.c     ****   while(1U)
  69:../main.c     ****   {
  70:../main.c     **** 	  /* Continuously Checking Mode and Error */
  71:../main.c     ****   	  OP_CheckingError(&controlFlag, &pcsSystemStatus, &pcsDCgridStatus,
 438              	 .loc 3 71 0
 439 0074 7548     	 ldr r0,.L25+12
 440 0076 7649     	 ldr r1,.L25+16
 441 0078 764A     	 ldr r2,.L25+20
 442 007a 774C     	 ldr r4,.L25+24
 443 007c 774B     	 ldr r3,.L25+28
 444 007e 0093     	 str r3,[sp]
 445 0080 774B     	 ldr r3,.L25+32
 446 0082 0193     	 str r3,[sp,#4]
 447 0084 231C     	 mov r3,r4
 448 0086 FFF7FEFF 	 bl OP_CheckingError
  72:../main.c     ****   			  	  	   &pcsACinvStatus, &pcsPVconvStatus, &pcsBatconvStatus);
  73:../main.c     ****   	  OP_CheckingMode(&controlFlag);
 449              	 .loc 3 73 0
 450 008a 704B     	 ldr r3,.L25+12
 451 008c 181C     	 mov r0,r3
 452 008e FFF7FEFF 	 bl OP_CheckingMode
  74:../main.c     **** 
  75:../main.c     ****   	  /* Run operational state */
  76:../main.c     ****   	  switch (mcu_state)
 453              	 .loc 3 76 0
 454 0092 6D4B     	 ldr r3,.L25+8
 455 0094 1B78     	 ldrb r3,[r3]
 456 0096 052B     	 cmp r3,#5
 457 0098 00D9     	 bls .LCB336
 458 009a CEE0     	 b .L24
 459              	.LCB336:
 460 009c 9A00     	 lsl r2,r3,#2
 461 009e 714B     	 ldr r3,.L25+36
 462 00a0 D318     	 add r3,r2,r3
 463 00a2 1B68     	 ldr r3,[r3]
 464 00a4 9F46     	 mov pc,r3
 465              	 .section .rodata.main,"a",%progbits
 466              	 .align 2
 467              	.L16:
 468 0000 A6000000 	 .word .L15
 469 0004 EE000000 	 .word .L17
 470 0008 30010000 	 .word .L18
 471 000c 70010000 	 .word .L19
 472 0010 AC010000 	 .word .L20
 473 0014 F6010000 	 .word .L21
 474              	 .section .text.main
 475              	.L15:
  77:../main.c     ****   	  {
  78:../main.c     ****   	  	  case OP_SETUP 	:
  79:../main.c     ****   	  		  mcu_state	= OP_SETUP;
 476              	 .loc 3 79 0
 477 00a6 684B     	 ldr r3,.L25+8
 478 00a8 0022     	 mov r2,#0
 479 00aa 1A70     	 strb r2,[r3]
  80:../main.c     **** 
  81:../main.c     **** 			  /* Set LED Indicator for this state */
  82:../main.c     **** 	  		  XMC_GPIO_SetOutputLevel(P2_11, XMC_GPIO_OUTPUT_LEVEL_LOW);
 480              	 .loc 3 82 0
 481 00ac 6E4A     	 ldr r2,.L25+40
 482 00ae 8023     	 mov r3,#128
 483 00b0 5B02     	 lsl r3,r3,#9
 484 00b2 101C     	 mov r0,r2
 485 00b4 0B21     	 mov r1,#11
 486 00b6 1A1C     	 mov r2,r3
 487 00b8 FFF7FEFF 	 bl XMC_GPIO_SetOutputLevel
  83:../main.c     **** 	  		  XMC_GPIO_SetOutputLevel(P2_12, XMC_GPIO_OUTPUT_LEVEL_HIGH);
 488              	 .loc 3 83 0
 489 00bc 6A4B     	 ldr r3,.L25+40
 490 00be 181C     	 mov r0,r3
 491 00c0 0C21     	 mov r1,#12
 492 00c2 0122     	 mov r2,#1
 493 00c4 FFF7FEFF 	 bl XMC_GPIO_SetOutputLevel
  84:../main.c     **** 	  		  XMC_GPIO_SetOutputLevel(P2_13, XMC_GPIO_OUTPUT_LEVEL_HIGH);
 494              	 .loc 3 84 0
 495 00c8 674B     	 ldr r3,.L25+40
 496 00ca 181C     	 mov r0,r3
 497 00cc 0D21     	 mov r1,#13
 498 00ce 0122     	 mov r2,#1
 499 00d0 FFF7FEFF 	 bl XMC_GPIO_SetOutputLevel
  85:../main.c     **** 
  86:../main.c     **** 			  /* Perform actions for this state */
  87:../main.c     **** 			  OP_SetupConnection(&mcu_state, &sysTickParamHandle, &controlFlag,
 500              	 .loc 3 87 0
 501 00d4 654B     	 ldr r3,.L25+44
 502 00d6 1C68     	 ldr r4,[r3]
 503 00d8 5B48     	 ldr r0,.L25+8
 504 00da 5949     	 ldr r1,.L25
 505 00dc 5B4A     	 ldr r2,.L25+12
 506 00de 644B     	 ldr r3,.L25+48
 507 00e0 0093     	 str r3,[sp]
 508 00e2 5B4B     	 ldr r3,.L25+16
 509 00e4 0193     	 str r3,[sp,#4]
 510 00e6 231C     	 add r3,r4,#0
 511 00e8 FFF7FEFF 	 bl OP_SetupConnection
  88:../main.c     **** 					  	  	  	  pduSensor.mPVPT, &pcsBmsStatus, &pcsSystemStatus);
  89:../main.c     **** 			  break;
 512              	 .loc 3 89 0
 513 00ec A6E0     	 b .L22
 514              	.L17:
  90:../main.c     ****   	  	  case OP_TURN_ON 	:
  91:../main.c     ****   	  		  mcu_state	= OP_TURN_ON;
 515              	 .loc 3 91 0
 516 00ee 564B     	 ldr r3,.L25+8
 517 00f0 0122     	 mov r2,#1
 518 00f2 1A70     	 strb r2,[r3]
  92:../main.c     **** 
  93:../main.c     ****   	  		  /* Set LED Indicator for this state */
  94:../main.c     **** 	  		  XMC_GPIO_SetOutputLevel(P2_11, XMC_GPIO_OUTPUT_LEVEL_HIGH);
 519              	 .loc 3 94 0
 520 00f4 5C4B     	 ldr r3,.L25+40
 521 00f6 181C     	 mov r0,r3
 522 00f8 0B21     	 mov r1,#11
 523 00fa 0122     	 mov r2,#1
 524 00fc FFF7FEFF 	 bl XMC_GPIO_SetOutputLevel
  95:../main.c     **** 	  		  XMC_GPIO_SetOutputLevel(P2_12, XMC_GPIO_OUTPUT_LEVEL_LOW);
 525              	 .loc 3 95 0
 526 0100 594A     	 ldr r2,.L25+40
 527 0102 8023     	 mov r3,#128
 528 0104 5B02     	 lsl r3,r3,#9
 529 0106 101C     	 mov r0,r2
 530 0108 0C21     	 mov r1,#12
 531 010a 1A1C     	 mov r2,r3
 532 010c FFF7FEFF 	 bl XMC_GPIO_SetOutputLevel
  96:../main.c     **** 	  		  XMC_GPIO_SetOutputLevel(P2_13, XMC_GPIO_OUTPUT_LEVEL_HIGH);
 533              	 .loc 3 96 0
 534 0110 554B     	 ldr r3,.L25+40
 535 0112 181C     	 mov r0,r3
 536 0114 0D21     	 mov r1,#13
 537 0116 0122     	 mov r2,#1
 538 0118 FFF7FEFF 	 bl XMC_GPIO_SetOutputLevel
  97:../main.c     **** 
  98:../main.c     **** 	  		  /* Perform actions for this state */
  99:../main.c     **** 	  		  OP_TurnOnPCS(&mcu_state, &sysTickParamHandle, &controlFlag, &pcsBmsStatus,
 539              	 .loc 3 99 0
 540 011c 4A48     	 ldr r0,.L25+8
 541 011e 4849     	 ldr r1,.L25
 542 0120 4A4A     	 ldr r2,.L25+12
 543 0122 534C     	 ldr r4,.L25+48
 544 0124 4A4B     	 ldr r3,.L25+16
 545 0126 0093     	 str r3,[sp]
 546 0128 231C     	 mov r3,r4
 547 012a FFF7FEFF 	 bl OP_TurnOnPCS
 100:../main.c     **** 	  				  	   &pcsSystemStatus);
 101:../main.c     **** 	  		  break;
 548              	 .loc 3 101 0
 549 012e 85E0     	 b .L22
 550              	.L18:
 102:../main.c     ****   	  	  case OP_RUNNING 	:
 103:../main.c     ****   	  		  mcu_state	= OP_RUNNING;
 551              	 .loc 3 103 0
 552 0130 454B     	 ldr r3,.L25+8
 553 0132 0222     	 mov r2,#2
 554 0134 1A70     	 strb r2,[r3]
 104:../main.c     **** 
 105:../main.c     **** 			  /* Set LED Indicator for this state */
 106:../main.c     **** 	  		  XMC_GPIO_SetOutputLevel(P2_11, XMC_GPIO_OUTPUT_LEVEL_LOW);
 555              	 .loc 3 106 0
 556 0136 4C4A     	 ldr r2,.L25+40
 557 0138 8023     	 mov r3,#128
 558 013a 5B02     	 lsl r3,r3,#9
 559 013c 101C     	 mov r0,r2
 560 013e 0B21     	 mov r1,#11
 561 0140 1A1C     	 mov r2,r3
 562 0142 FFF7FEFF 	 bl XMC_GPIO_SetOutputLevel
 107:../main.c     **** 	  		  XMC_GPIO_SetOutputLevel(P2_12, XMC_GPIO_OUTPUT_LEVEL_LOW);
 563              	 .loc 3 107 0
 564 0146 484A     	 ldr r2,.L25+40
 565 0148 8023     	 mov r3,#128
 566 014a 5B02     	 lsl r3,r3,#9
 567 014c 101C     	 mov r0,r2
 568 014e 0C21     	 mov r1,#12
 569 0150 1A1C     	 mov r2,r3
 570 0152 FFF7FEFF 	 bl XMC_GPIO_SetOutputLevel
 108:../main.c     **** 	  		  XMC_GPIO_SetOutputLevel(P2_13, XMC_GPIO_OUTPUT_LEVEL_HIGH);
 571              	 .loc 3 108 0
 572 0156 444B     	 ldr r3,.L25+40
 573 0158 181C     	 mov r0,r3
 574 015a 0D21     	 mov r1,#13
 575 015c 0122     	 mov r2,#1
 576 015e FFF7FEFF 	 bl XMC_GPIO_SetOutputLevel
 109:../main.c     **** 
 110:../main.c     **** 			  /* Perform actions for this state */
 111:../main.c     **** 			  OP_CheckingPCSStatus(&mcu_state, &pcsSystemStatus, &sysTickParamHandle,
 577              	 .loc 3 111 0
 578 0162 3948     	 ldr r0,.L25+8
 579 0164 3A49     	 ldr r1,.L25+16
 580 0166 364A     	 ldr r2,.L25
 581 0168 384B     	 ldr r3,.L25+12
 582 016a FFF7FEFF 	 bl OP_CheckingPCSStatus
 112:../main.c     **** 								   &controlFlag);
 113:../main.c     **** 			  break;
 583              	 .loc 3 113 0
 584 016e 65E0     	 b .L22
 585              	.L19:
 114:../main.c     **** 		  case OP_STANDBY	:
 115:../main.c     **** 			  mcu_state	= OP_STANDBY;
 586              	 .loc 3 115 0
 587 0170 354B     	 ldr r3,.L25+8
 588 0172 0322     	 mov r2,#3
 589 0174 1A70     	 strb r2,[r3]
 116:../main.c     **** 
 117:../main.c     **** 			  /* Set LED Indicator for this state */
 118:../main.c     **** 	  		  XMC_GPIO_SetOutputLevel(P2_11, XMC_GPIO_OUTPUT_LEVEL_HIGH);
 590              	 .loc 3 118 0
 591 0176 3C4B     	 ldr r3,.L25+40
 592 0178 181C     	 mov r0,r3
 593 017a 0B21     	 mov r1,#11
 594 017c 0122     	 mov r2,#1
 595 017e FFF7FEFF 	 bl XMC_GPIO_SetOutputLevel
 119:../main.c     **** 	  		  XMC_GPIO_SetOutputLevel(P2_12, XMC_GPIO_OUTPUT_LEVEL_HIGH);
 596              	 .loc 3 119 0
 597 0182 394B     	 ldr r3,.L25+40
 598 0184 181C     	 mov r0,r3
 599 0186 0C21     	 mov r1,#12
 600 0188 0122     	 mov r2,#1
 601 018a FFF7FEFF 	 bl XMC_GPIO_SetOutputLevel
 120:../main.c     **** 	  		  XMC_GPIO_SetOutputLevel(P2_13, XMC_GPIO_OUTPUT_LEVEL_LOW);
 602              	 .loc 3 120 0
 603 018e 364A     	 ldr r2,.L25+40
 604 0190 8023     	 mov r3,#128
 605 0192 5B02     	 lsl r3,r3,#9
 606 0194 101C     	 mov r0,r2
 607 0196 0D21     	 mov r1,#13
 608 0198 1A1C     	 mov r2,r3
 609 019a FFF7FEFF 	 bl XMC_GPIO_SetOutputLevel
 121:../main.c     **** 
 122:../main.c     **** 			  /* Perform actions for this state */
 123:../main.c     **** 			  OP_PutSystemStandby(&mcu_state, &pcsSystemStatus, &controlFlag,
 610              	 .loc 3 123 0
 611 019e 2A48     	 ldr r0,.L25+8
 612 01a0 2B49     	 ldr r1,.L25+16
 613 01a2 2A4A     	 ldr r2,.L25+12
 614 01a4 324B     	 ldr r3,.L25+48
 615 01a6 FFF7FEFF 	 bl OP_PutSystemStandby
 124:../main.c     **** 					  	  	  	  &pcsBmsStatus);
 125:../main.c     **** 			  break;
 616              	 .loc 3 125 0
 617 01aa 47E0     	 b .L22
 618              	.L20:
 126:../main.c     **** 		  case OP_ERROR		:
 127:../main.c     **** 			  mcu_state	= OP_ERROR;
 619              	 .loc 3 127 0
 620 01ac 264B     	 ldr r3,.L25+8
 621 01ae 0422     	 mov r2,#4
 622 01b0 1A70     	 strb r2,[r3]
 128:../main.c     **** 
 129:../main.c     **** 			  /* Set LED Indicator for this state */
 130:../main.c     **** 	  		  XMC_GPIO_SetOutputLevel(P2_11, XMC_GPIO_OUTPUT_LEVEL_LOW);
 623              	 .loc 3 130 0
 624 01b2 2D4A     	 ldr r2,.L25+40
 625 01b4 8023     	 mov r3,#128
 626 01b6 5B02     	 lsl r3,r3,#9
 627 01b8 101C     	 mov r0,r2
 628 01ba 0B21     	 mov r1,#11
 629 01bc 1A1C     	 mov r2,r3
 630 01be FFF7FEFF 	 bl XMC_GPIO_SetOutputLevel
 131:../main.c     **** 	  		  XMC_GPIO_SetOutputLevel(P2_12, XMC_GPIO_OUTPUT_LEVEL_HIGH);
 631              	 .loc 3 131 0
 632 01c2 294B     	 ldr r3,.L25+40
 633 01c4 181C     	 mov r0,r3
 634 01c6 0C21     	 mov r1,#12
 635 01c8 0122     	 mov r2,#1
 636 01ca FFF7FEFF 	 bl XMC_GPIO_SetOutputLevel
 132:../main.c     **** 	  		  XMC_GPIO_SetOutputLevel(P2_13, XMC_GPIO_OUTPUT_LEVEL_LOW);
 637              	 .loc 3 132 0
 638 01ce 264A     	 ldr r2,.L25+40
 639 01d0 8023     	 mov r3,#128
 640 01d2 5B02     	 lsl r3,r3,#9
 641 01d4 101C     	 mov r0,r2
 642 01d6 0D21     	 mov r1,#13
 643 01d8 1A1C     	 mov r2,r3
 644 01da FFF7FEFF 	 bl XMC_GPIO_SetOutputLevel
 133:../main.c     **** 
 134:../main.c     **** 			  /* Perform actions for this state */
 135:../main.c     **** 			  OP_HandlingPCSWarning(&mcu_state, &pcsSystemStatus, &sysTickParamHandle,
 645              	 .loc 3 135 0
 646 01de 1A48     	 ldr r0,.L25+8
 647 01e0 1B49     	 ldr r1,.L25+16
 648 01e2 174A     	 ldr r2,.L25
 649 01e4 194C     	 ldr r4,.L25+12
 650 01e6 234B     	 ldr r3,.L25+52
 651 01e8 0093     	 str r3,[sp]
 652 01ea 214B     	 ldr r3,.L25+48
 653 01ec 0193     	 str r3,[sp,#4]
 654 01ee 231C     	 mov r3,r4
 655 01f0 FFF7FEFF 	 bl OP_HandlingPCSWarning
 136:../main.c     **** 									&controlFlag, &bmsSensor, &pcsBmsStatus);
 137:../main.c     **** 			  break;
 656              	 .loc 3 137 0
 657 01f4 22E0     	 b .L22
 658              	.L21:
 138:../main.c     **** 		  case OP_SHUTDOWN	:
 139:../main.c     **** 			  mcu_state 	= OP_SHUTDOWN;
 659              	 .loc 3 139 0
 660 01f6 144B     	 ldr r3,.L25+8
 661 01f8 0522     	 mov r2,#5
 662 01fa 1A70     	 strb r2,[r3]
 140:../main.c     **** 
 141:../main.c     **** 			  /* Set LED Indicator for this state */
 142:../main.c     **** 	  		  XMC_GPIO_SetOutputLevel(P2_11, XMC_GPIO_OUTPUT_LEVEL_LOW);
 663              	 .loc 3 142 0
 664 01fc 1A4A     	 ldr r2,.L25+40
 665 01fe 8023     	 mov r3,#128
 666 0200 5B02     	 lsl r3,r3,#9
 667 0202 101C     	 mov r0,r2
 668 0204 0B21     	 mov r1,#11
 669 0206 1A1C     	 mov r2,r3
 670 0208 FFF7FEFF 	 bl XMC_GPIO_SetOutputLevel
 143:../main.c     **** 	  		  XMC_GPIO_SetOutputLevel(P2_12, XMC_GPIO_OUTPUT_LEVEL_LOW);
 671              	 .loc 3 143 0
 672 020c 164A     	 ldr r2,.L25+40
 673 020e 8023     	 mov r3,#128
 674 0210 5B02     	 lsl r3,r3,#9
 675 0212 101C     	 mov r0,r2
 676 0214 0C21     	 mov r1,#12
 677 0216 1A1C     	 mov r2,r3
 678 0218 FFF7FEFF 	 bl XMC_GPIO_SetOutputLevel
 144:../main.c     **** 	  		  XMC_GPIO_SetOutputLevel(P2_13, XMC_GPIO_OUTPUT_LEVEL_LOW);
 679              	 .loc 3 144 0
 680 021c 124A     	 ldr r2,.L25+40
 681 021e 8023     	 mov r3,#128
 682 0220 5B02     	 lsl r3,r3,#9
 683 0222 101C     	 mov r0,r2
 684 0224 0D21     	 mov r1,#13
 685 0226 1A1C     	 mov r2,r3
 686 0228 FFF7FEFF 	 bl XMC_GPIO_SetOutputLevel
 145:../main.c     **** 
 146:../main.c     **** 			  /* Perform actions for this state */
 147:../main.c     **** 			  OP_PutSystemShutDown(&mcu_state, &sysTickParamHandle);
 687              	 .loc 3 147 0
 688 022c 064A     	 ldr r2,.L25+8
 689 022e 044B     	 ldr r3,.L25
 690 0230 101C     	 mov r0,r2
 691 0232 191C     	 mov r1,r3
 692 0234 FFF7FEFF 	 bl OP_PutSystemShutDown
 148:../main.c     **** 			  break;
 693              	 .loc 3 148 0
 694 0238 00E0     	 b .L22
 695              	.L24:
 149:../main.c     **** 		  default			: break;
 696              	 .loc 3 149 0
 697 023a C046     	 mov r8,r8
 698              	.L22:
 150:../main.c     **** 	  }
 151:../main.c     ****   }
 699              	 .loc 3 151 0 discriminator 1
 700 023c 1AE7     	 b .L23
 701              	.L26:
 702 023e C046     	 .align 2
 703              	.L25:
 704 0240 00000000 	 .word sysTickParamHandle
 705 0244 00000000 	 .word SystemCoreClock
 706 0248 00000000 	 .word mcu_state
 707 024c 00000000 	 .word controlFlag
 708 0250 00000000 	 .word pcsSystemStatus
 709 0254 00000000 	 .word pcsDCgridStatus
 710 0258 00000000 	 .word pcsACinvStatus
 711 025c 00000000 	 .word pcsPVconvStatus
 712 0260 00000000 	 .word pcsBatconvStatus
 713 0264 00000000 	 .word .L16
 714 0268 00020440 	 .word 1074004480
 715 026c 00000000 	 .word pduSensor
 716 0270 00000000 	 .word pcsBmsStatus
 717 0274 00000000 	 .word bmsSensor
 718              	 .cfi_endproc
 719              	.LFE381:
 721              	 .text
 722              	.Letext0:
 723              	 .file 4 "d:\\software\\dave_4-4-2_64bit_2018-02-23\\dave_4-4-2_64bit_2018-02-23\\dave-ide-4.4.2-64bit\\dave-ide-4.4.2-64bit\\eclipse\\arm-gcc-49\\arm-none-eabi\\include\\machine\\_default_types.h"
 724              	 .file 5 "d:\\software\\dave_4-4-2_64bit_2018-02-23\\dave_4-4-2_64bit_2018-02-23\\dave-ide-4.4.2-64bit\\dave-ide-4.4.2-64bit\\eclipse\\arm-gcc-49\\arm-none-eabi\\include\\stdint.h"
 725              	 .file 6 "C:/Users/Lenovo/workspace/dave_workspace/SOLAR_TOWER_XMC/Libraries/CMSIS/Infineon/XMC1400_series/Include/XMC1400.h"
 726              	 .file 7 "C:/Users/Lenovo/workspace/dave_workspace/SOLAR_TOWER_XMC/Libraries/XMCLib/inc/xmc1_gpio.h"
 727              	 .file 8 "C:/Users/Lenovo/workspace/dave_workspace/SOLAR_TOWER_XMC/Libraries/XMCLib/inc/xmc_usic.h"
 728              	 .file 9 "C:/Users/Lenovo/workspace/dave_workspace/SOLAR_TOWER_XMC/Libraries/XMCLib/inc/xmc_uart.h"
 729              	 .file 10 "C:/Users/Lenovo/workspace/dave_workspace/SOLAR_TOWER_XMC/interconnect/esp32/esp32_op.h"
 730              	 .file 11 "C:/Users/Lenovo/workspace/dave_workspace/SOLAR_TOWER_XMC/Libraries/XMCLib/inc/xmc_ccu4.h"
 731              	 .file 12 "C:/Users/Lenovo/workspace/dave_workspace/SOLAR_TOWER_XMC/Libraries/XMCLib/inc/xmc_can.h"
 732              	 .file 13 "C:/Users/Lenovo/workspace/dave_workspace/SOLAR_TOWER_XMC/interconnect/pcs/pcs_op.h"
 733              	 .file 14 "C:/Users/Lenovo/workspace/dave_workspace/SOLAR_TOWER_XMC/interconnect/genix/genix_op.h"
 734              	 .file 15 "C:/Users/Lenovo/workspace/dave_workspace/SOLAR_TOWER_XMC/Libraries/XMCLib/inc/xmc_vadc.h"
 735              	 .file 16 "C:/Users/Lenovo/workspace/dave_workspace/SOLAR_TOWER_XMC/interconnect/pdu/pdu_op.h"
 736              	 .file 17 "C:/Users/Lenovo/workspace/dave_workspace/SOLAR_TOWER_XMC/variables/variables.h"
 737              	 .file 18 "C:/Users/Lenovo/workspace/dave_workspace/SOLAR_TOWER_XMC/operation/operation.h"
 738              	 .file 19 "C:/Users/Lenovo/workspace/dave_workspace/SOLAR_TOWER_XMC/Libraries/CMSIS/Include/cmsis_gcc.h"
 739              	 .file 20 "C:/Users/Lenovo/workspace/dave_workspace/SOLAR_TOWER_XMC/Libraries/CMSIS/Infineon/XMC1400_series/Include/system_XMC1400.h"
 740              	 .file 21 "C:/Users/Lenovo/workspace/dave_workspace/SOLAR_TOWER_XMC/interconnect/esp32/esp32_op_conf.h"
 741              	 .file 22 "C:/Users/Lenovo/workspace/dave_workspace/SOLAR_TOWER_XMC/interconnect/pcs/pcs_op_conf.h"
 742              	 .file 23 "C:/Users/Lenovo/workspace/dave_workspace/SOLAR_TOWER_XMC/interconnect/genix/genix_op_conf.h"
 743              	 .file 24 "C:/Users/Lenovo/workspace/dave_workspace/SOLAR_TOWER_XMC/interconnect/gpios/gpio_op_conf.h"
 744              	 .file 25 "C:/Users/Lenovo/workspace/dave_workspace/SOLAR_TOWER_XMC/interconnect/pdu/pdu_op_conf.h"
 745              	 .file 26 "C:/Users/Lenovo/workspace/dave_workspace/SOLAR_TOWER_XMC/interconnect/timing/timing_op_conf.h"
DEFINED SYMBOLS
                            *ABS*:00000000 main.c
    {standard input}:18     .text.__NVIC_SetPriority:00000000 $t
    {standard input}:22     .text.__NVIC_SetPriority:00000000 __NVIC_SetPriority
    {standard input}:152    .text.__NVIC_SetPriority:000000cc $d
    {standard input}:158    .text.SysTick_Config:00000000 $t
    {standard input}:162    .text.SysTick_Config:00000000 SysTick_Config
    {standard input}:219    .text.SysTick_Config:00000040 $d
    {standard input}:225    .text.XMC_GPIO_SetOutputLevel:00000000 $t
    {standard input}:229    .text.XMC_GPIO_SetOutputLevel:00000000 XMC_GPIO_SetOutputLevel
                            *COM*:00000008 tx_config
                            *COM*:00000008 rx_config
                            *COM*:0000000c uart_config
                            *COM*:00000008 pcs_button_config
                            *COM*:00000008 CAN0_txd_config
                            *COM*:00000008 CAN0_rxd_config
                            *COM*:0000000c can_baud
                            *COM*:00000020 msgObjToPCS
                            *COM*:00000020 msgObjFromPCS
                            *COM*:00000008 tx_genix_config
                            *COM*:00000008 rx_genix_config
                            *COM*:0000000c uart_genix_config
                            *COM*:00000008 led
                            *COM*:00000008 button
                            *COM*:00000008 dipswitch_config
                            *COM*:00000018 g_global_handle
                            *COM*:00000014 g_group_handle
                            *COM*:0000000c g_queue_handle
                            *COM*:00000010 g_queue_entry
                            *COM*:00000040 g_channel_handle
                            *COM*:00000010 g_result_handle
                            *COM*:00000008 adc_io
                            *COM*:00000008 relay_KMP
                            *COM*:00000008 relay_KMF
                            *COM*:00000008 relay_KDSG
                            *COM*:00000008 relay_KBAT
                            *COM*:00000008 SLICE0_config
                            *COM*:00000008 SLICE1_config
                            *COM*:00000008 SLICE2_config
                            *COM*:00000006 sysTickParamHandle
                            *COM*:00000004 pcsBmsStatus
                            *COM*:00000008 bmsSensor
                            *COM*:00000008 pcsVoltages
                            *COM*:00000008 pcsCurrents
                            *COM*:00000008 pcsPowers
                            *COM*:00000004 pcsMiscs
                            *COM*:00000005 pcsSystemStatus
                            *COM*:00000004 pcsDCgridStatus
                            *COM*:00000004 pcsACinvStatus
                            *COM*:00000004 pcsPVconvStatus
                            *COM*:00000004 pcsBatconvStatus
                            *COM*:0000004c data_group
                            *COM*:00000004 buffptr
                            *COM*:00000050 espBuffer
                            *COM*:00000008 pduSensorRaw
                            *COM*:00000014 pduSensorAvg
                            *COM*:00000010 pduSensor
                            *COM*:00000008 genix_data
                            *COM*:00000001 mcu_state
                            *COM*:00000006 controlFlag
    {standard input}:322    .bss.count:00000000 count
    {standard input}:319    .bss.count:00000000 $d
    {standard input}:325    .text.SysTick_Handler:00000000 $t
    {standard input}:330    .text.SysTick_Handler:00000000 SysTick_Handler
    {standard input}:352    .text.main:00000000 $t
    {standard input}:357    .text.main:00000000 main
    {standard input}:466    .rodata.main:00000000 $d
    {standard input}:704    .text.main:00000240 $d
                     .debug_frame:00000010 $d

UNDEFINED SYMBOLS
__aeabi_uidiv
GPIO_Init
ESP32_ConnectionInit
PCS_ConnectionInit
GENIX_ConnectionInit
PDU_Relay_Init
PDU_SensorADC_Init
TIMING_TimerInit
OP_CheckingError
OP_CheckingMode
OP_SetupConnection
OP_TurnOnPCS
OP_CheckingPCSStatus
OP_PutSystemStandby
OP_HandlingPCSWarning
OP_PutSystemShutDown
SystemCoreClock
